	.cpu cortex-m33
	.eabi_attribute 20, 1
	.eabi_attribute 21, 1
	.eabi_attribute 23, 3
	.eabi_attribute 24, 1
	.eabi_attribute 25, 1
	.eabi_attribute 26, 1
	.eabi_attribute 30, 6
	.eabi_attribute 34, 1
	.eabi_attribute 18, 4
	.file	"SEGGER_RTT.c"
	.text
.Ltext0:
	.section	.data._aTerminalId,"aw"
	.align	2
	.type	_aTerminalId, %object
	.size	_aTerminalId, 16
_aTerminalId:
	.ascii	"0123456789ABCDEF"
	.global	_SEGGER_RTT
	.section	.bss._SEGGER_RTT,"aw",%nobits
	.align	2
	.type	_SEGGER_RTT, %object
	.size	_SEGGER_RTT, 120
_SEGGER_RTT:
	.space	120
	.section	.bss._acUpBuffer,"aw",%nobits
	.align	2
	.type	_acUpBuffer, %object
	.size	_acUpBuffer, 1024
_acUpBuffer:
	.space	1024
	.section	.bss._acDownBuffer,"aw",%nobits
	.align	2
	.type	_acDownBuffer, %object
	.size	_acDownBuffer, 16
_acDownBuffer:
	.space	16
	.section	.bss._ActiveTerminal,"aw",%nobits
	.type	_ActiveTerminal, %object
	.size	_ActiveTerminal, 1
_ActiveTerminal:
	.space	1
	.section .rodata
	.align	2
.LC0:
	.ascii	"Terminal\000"
	.align	2
.LC1:
	.ascii	"RTT\000"
	.align	2
.LC2:
	.ascii	"SEGGER\000"
	.section	.text._DoInit,"ax",%progbits
	.align	1
	.syntax unified
	.thumb
	.thumb_func
	.fpu softvfp
	.type	_DoInit, %function
_DoInit:
.LFB0:
	.file 1 "C:\\Users\\Devan\\Documents\\SEGGER Embedded Studio for ARM Projects\\Executable_1\\SEGGER\\SEGGER_RTT.c"
	.loc 1 264 27
	@ args = 0, pretend = 0, frame = 8
	@ frame_needed = 0, uses_anonymous_args = 0
	push	{lr}
.LCFI0:
	sub	sp, sp, #12
.LCFI1:
	.loc 1 269 5
	ldr	r3, .L2
	str	r3, [sp, #4]
	.loc 1 270 25
	ldr	r3, [sp, #4]
	movs	r2, #2
	str	r2, [r3, #16]
	.loc 1 271 25
	ldr	r3, [sp, #4]
	movs	r2, #2
	str	r2, [r3, #20]
	.loc 1 275 27
	ldr	r3, [sp, #4]
	ldr	r2, .L2+4
	str	r2, [r3, #24]
	.loc 1 276 27
	ldr	r3, [sp, #4]
	ldr	r2, .L2+8
	str	r2, [r3, #28]
	.loc 1 277 27
	ldr	r3, [sp, #4]
	mov	r2, #1024
	str	r2, [r3, #32]
	.loc 1 278 27
	ldr	r3, [sp, #4]
	movs	r2, #0
	str	r2, [r3, #40]
	.loc 1 279 27
	ldr	r3, [sp, #4]
	movs	r2, #0
	str	r2, [r3, #36]
	.loc 1 280 27
	ldr	r3, [sp, #4]
	movs	r2, #0
	str	r2, [r3, #44]
	.loc 1 284 29
	ldr	r3, [sp, #4]
	ldr	r2, .L2+4
	str	r2, [r3, #72]
	.loc 1 285 29
	ldr	r3, [sp, #4]
	ldr	r2, .L2+12
	str	r2, [r3, #76]
	.loc 1 286 29
	ldr	r3, [sp, #4]
	movs	r2, #16
	str	r2, [r3, #80]
	.loc 1 287 29
	ldr	r3, [sp, #4]
	movs	r2, #0
	str	r2, [r3, #88]
	.loc 1 288 29
	ldr	r3, [sp, #4]
	movs	r2, #0
	str	r2, [r3, #84]
	.loc 1 289 29
	ldr	r3, [sp, #4]
	movs	r2, #0
	str	r2, [r3, #92]
	.loc 1 295 3
	ldr	r3, [sp, #4]
	adds	r3, r3, #7
	ldr	r1, .L2+16
	mov	r0, r3
	bl	strcpy
	.loc 1 296 3
	ldr	r3, [sp, #4]
	ldr	r1, .L2+20
	mov	r0, r3
	bl	strcpy
	.loc 1 297 14
	ldr	r3, [sp, #4]
	movs	r2, #32
	strb	r2, [r3, #6]
	.loc 1 298 1
	nop
	add	sp, sp, #12
.LCFI2:
	@ sp needed
	ldr	pc, [sp], #4
.L3:
	.align	2
.L2:
	.word	_SEGGER_RTT
	.word	.LC0
	.word	_acUpBuffer
	.word	_acDownBuffer
	.word	.LC1
	.word	.LC2
.LFE0:
	.size	_DoInit, .-_DoInit
	.section	.text._WriteBlocking,"ax",%progbits
	.align	1
	.syntax unified
	.thumb
	.thumb_func
	.fpu softvfp
	.type	_WriteBlocking, %function
_WriteBlocking:
.LFB1:
	.loc 1 319 101
	@ args = 0, pretend = 0, frame = 32
	@ frame_needed = 0, uses_anonymous_args = 0
	push	{lr}
.LCFI3:
	sub	sp, sp, #36
.LCFI4:
	str	r0, [sp, #12]
	str	r1, [sp, #8]
	str	r2, [sp, #4]
	.loc 1 330 19
	movs	r3, #0
	str	r3, [sp, #24]
	.loc 1 331 9
	ldr	r3, [sp, #12]
	ldr	r3, [r3, #12]
	str	r3, [sp, #20]
.L8:
	.loc 1 333 11
	ldr	r3, [sp, #12]
	ldr	r3, [r3, #16]
	str	r3, [sp, #16]
	.loc 1 334 8
	ldr	r2, [sp, #16]
	ldr	r3, [sp, #20]
	cmp	r2, r3
	bls	.L5
	.loc 1 335 31
	ldr	r2, [sp, #16]
	ldr	r3, [sp, #20]
	subs	r3, r2, r3
	.loc 1 335 23
	subs	r3, r3, #1
	str	r3, [sp, #28]
	b	.L6
.L5:
	.loc 1 337 30
	ldr	r3, [sp, #12]
	ldr	r2, [r3, #8]
	.loc 1 337 62
	ldr	r1, [sp, #16]
	ldr	r3, [sp, #20]
	subs	r3, r1, r3
	.loc 1 337 45
	add	r3, r3, r2
	.loc 1 337 23
	subs	r3, r3, #1
	str	r3, [sp, #28]
.L6:
	.loc 1 339 23
	ldr	r3, [sp, #12]
	ldr	r2, [r3, #8]
	ldr	r3, [sp, #20]
	subs	r3, r2, r3
	.loc 1 339 21
	ldr	r2, [sp, #28]
	cmp	r3, r2
	it	cs
	movcs	r3, r2
	str	r3, [sp, #28]
	.loc 1 340 21
	ldr	r2, [sp, #28]
	ldr	r3, [sp, #4]
	cmp	r3, r2
	it	cs
	movcs	r3, r2
	str	r3, [sp, #28]
	.loc 1 350 5
	ldr	r3, [sp, #12]
	ldr	r2, [r3, #4]
	ldr	r3, [sp, #20]
	add	r3, r3, r2
	ldr	r2, [sp, #28]
	ldr	r1, [sp, #8]
	mov	r0, r3
	bl	memcpy
	.loc 1 351 21
	ldr	r2, [sp, #24]
	ldr	r3, [sp, #28]
	add	r3, r3, r2
	str	r3, [sp, #24]
	.loc 1 352 21
	ldr	r2, [sp, #8]
	ldr	r3, [sp, #28]
	add	r3, r3, r2
	str	r3, [sp, #8]
	.loc 1 353 21
	ldr	r2, [sp, #4]
	ldr	r3, [sp, #28]
	subs	r3, r2, r3
	str	r3, [sp, #4]
	.loc 1 354 21
	ldr	r2, [sp, #20]
	ldr	r3, [sp, #28]
	add	r3, r3, r2
	str	r3, [sp, #20]
	.loc 1 356 23
	ldr	r3, [sp, #12]
	ldr	r3, [r3, #8]
	.loc 1 356 8
	ldr	r2, [sp, #20]
	cmp	r2, r3
	bne	.L7
	.loc 1 357 13
	movs	r3, #0
	str	r3, [sp, #20]
.L7:
	.loc 1 359 18
	ldr	r3, [sp, #12]
	ldr	r2, [sp, #20]
	str	r2, [r3, #12]
	.loc 1 360 3
	ldr	r3, [sp, #4]
	cmp	r3, #0
	bne	.L8
	.loc 1 362 10
	ldr	r3, [sp, #24]
	.loc 1 363 1
	mov	r0, r3
	add	sp, sp, #36
.LCFI5:
	@ sp needed
	ldr	pc, [sp], #4
.LFE1:
	.size	_WriteBlocking, .-_WriteBlocking
	.section	.text._WriteNoCheck,"ax",%progbits
	.align	1
	.syntax unified
	.thumb
	.thumb_func
	.fpu softvfp
	.type	_WriteNoCheck, %function
_WriteNoCheck:
.LFB2:
	.loc 1 383 94
	@ args = 0, pretend = 0, frame = 32
	@ frame_needed = 0, uses_anonymous_args = 0
	push	{lr}
.LCFI6:
	sub	sp, sp, #36
.LCFI7:
	str	r0, [sp, #12]
	str	r1, [sp, #8]
	str	r2, [sp, #4]
	.loc 1 391 9
	ldr	r3, [sp, #12]
	ldr	r3, [r3, #12]
	str	r3, [sp, #28]
	.loc 1 392 14
	ldr	r3, [sp, #12]
	ldr	r2, [r3, #8]
	.loc 1 392 7
	ldr	r3, [sp, #28]
	subs	r3, r2, r3
	str	r3, [sp, #24]
	.loc 1 393 6
	ldr	r2, [sp, #24]
	ldr	r3, [sp, #4]
	cmp	r2, r3
	bls	.L11
	.loc 1 405 5
	ldr	r3, [sp, #12]
	ldr	r2, [r3, #4]
	ldr	r3, [sp, #28]
	add	r3, r3, r2
	ldr	r2, [sp, #4]
	ldr	r1, [sp, #8]
	mov	r0, r3
	bl	memcpy
	.loc 1 406 26
	ldr	r2, [sp, #28]
	ldr	r3, [sp, #4]
	add	r2, r2, r3
	.loc 1 406 18
	ldr	r3, [sp, #12]
	str	r2, [r3, #12]
	.loc 1 432 1
	b	.L13
.L11:
	.loc 1 425 20
	ldr	r3, [sp, #24]
	str	r3, [sp, #20]
	.loc 1 426 5
	ldr	r3, [sp, #12]
	ldr	r2, [r3, #4]
	ldr	r3, [sp, #28]
	add	r3, r3, r2
	ldr	r2, [sp, #20]
	ldr	r1, [sp, #8]
	mov	r0, r3
	bl	memcpy
	.loc 1 427 20
	ldr	r2, [sp, #4]
	ldr	r3, [sp, #24]
	subs	r3, r2, r3
	str	r3, [sp, #20]
	.loc 1 428 5
	ldr	r3, [sp, #12]
	ldr	r0, [r3, #4]
	ldr	r2, [sp, #8]
	ldr	r3, [sp, #24]
	add	r3, r3, r2
	ldr	r2, [sp, #20]
	mov	r1, r3
	bl	memcpy
	.loc 1 429 18
	ldr	r3, [sp, #12]
	ldr	r2, [sp, #20]
	str	r2, [r3, #12]
.L13:
	.loc 1 432 1
	nop
	add	sp, sp, #36
.LCFI8:
	@ sp needed
	ldr	pc, [sp], #4
.LFE2:
	.size	_WriteNoCheck, .-_WriteNoCheck
	.section	.text._PostTerminalSwitch,"ax",%progbits
	.align	1
	.syntax unified
	.thumb
	.thumb_func
	.fpu softvfp
	.type	_PostTerminalSwitch, %function
_PostTerminalSwitch:
.LFB3:
	.loc 1 447 88
	@ args = 0, pretend = 0, frame = 16
	@ frame_needed = 0, uses_anonymous_args = 0
	push	{lr}
.LCFI9:
	sub	sp, sp, #20
.LCFI10:
	str	r0, [sp, #4]
	mov	r3, r1
	strb	r3, [sp, #3]
	.loc 1 450 9
	movs	r3, #255
	strb	r3, [sp, #12]
	.loc 1 451 23
	ldrb	r3, [sp, #3]	@ zero_extendqisi2
	ldr	r2, .L15
	ldrb	r3, [r2, r3]	@ zero_extendqisi2
	.loc 1 451 9
	strb	r3, [sp, #13]
	.loc 1 452 3
	add	r3, sp, #12
	movs	r2, #2
	mov	r1, r3
	ldr	r0, [sp, #4]
	bl	_WriteBlocking
	.loc 1 453 1
	nop
	add	sp, sp, #20
.LCFI11:
	@ sp needed
	ldr	pc, [sp], #4
.L16:
	.align	2
.L15:
	.word	_aTerminalId
.LFE3:
	.size	_PostTerminalSwitch, .-_PostTerminalSwitch
	.section	.text._GetAvailWriteSpace,"ax",%progbits
	.align	1
	.syntax unified
	.thumb
	.thumb_func
	.fpu softvfp
	.type	_GetAvailWriteSpace, %function
_GetAvailWriteSpace:
.LFB4:
	.loc 1 469 66
	@ args = 0, pretend = 0, frame = 24
	@ frame_needed = 0, uses_anonymous_args = 0
	@ link register save eliminated.
	sub	sp, sp, #24
.LCFI12:
	str	r0, [sp, #4]
	.loc 1 477 9
	ldr	r3, [sp, #4]
	ldr	r3, [r3, #16]
	str	r3, [sp, #16]
	.loc 1 478 9
	ldr	r3, [sp, #4]
	ldr	r3, [r3, #12]
	str	r3, [sp, #12]
	.loc 1 479 6
	ldr	r2, [sp, #16]
	ldr	r3, [sp, #12]
	cmp	r2, r3
	bhi	.L18
	.loc 1 480 14
	ldr	r3, [sp, #4]
	ldr	r2, [r3, #8]
	.loc 1 480 34
	ldr	r3, [sp, #12]
	subs	r2, r2, r3
	.loc 1 480 42
	ldr	r3, [sp, #16]
	add	r3, r3, r2
	.loc 1 480 7
	subs	r3, r3, #1
	str	r3, [sp, #20]
	b	.L19
.L18:
	.loc 1 482 15
	ldr	r2, [sp, #16]
	ldr	r3, [sp, #12]
	subs	r3, r2, r3
	.loc 1 482 7
	subs	r3, r3, #1
	str	r3, [sp, #20]
.L19:
	.loc 1 484 10
	ldr	r3, [sp, #20]
	.loc 1 485 1
	mov	r0, r3
	add	sp, sp, #24
.LCFI13:
	@ sp needed
	bx	lr
.LFE4:
	.size	_GetAvailWriteSpace, .-_GetAvailWriteSpace
	.section	.text.SEGGER_RTT_ReadNoLock,"ax",%progbits
	.align	1
	.global	SEGGER_RTT_ReadNoLock
	.syntax unified
	.thumb
	.thumb_func
	.fpu softvfp
	.type	SEGGER_RTT_ReadNoLock, %function
SEGGER_RTT_ReadNoLock:
.LFB5:
	.loc 1 510 88
	@ args = 0, pretend = 0, frame = 40
	@ frame_needed = 0, uses_anonymous_args = 0
	push	{lr}
.LCFI14:
	sub	sp, sp, #44
.LCFI15:
	str	r0, [sp, #12]
	str	r1, [sp, #8]
	str	r2, [sp, #4]
	.loc 1 521 3
	ldr	r3, .L27
	ldrb	r3, [r3]	@ zero_extendqisi2
	cmp	r3, #0
	bne	.L22
	.loc 1 521 3 is_stmt 0 discriminator 1
	bl	_DoInit
.L22:
	.loc 1 522 9 is_stmt 1
	ldr	r2, [sp, #12]
	mov	r3, r2
	lsls	r3, r3, #1
	add	r3, r3, r2
	lsls	r3, r3, #3
	adds	r3, r3, #72
	ldr	r2, .L27
	add	r3, r3, r2
	str	r3, [sp, #24]
	.loc 1 523 11
	ldr	r3, [sp, #8]
	str	r3, [sp, #28]
	.loc 1 524 9
	ldr	r3, [sp, #24]
	ldr	r3, [r3, #16]
	str	r3, [sp, #32]
	.loc 1 525 9
	ldr	r3, [sp, #24]
	ldr	r3, [r3, #12]
	str	r3, [sp, #20]
	.loc 1 526 16
	movs	r3, #0
	str	r3, [sp, #36]
	.loc 1 530 6
	ldr	r2, [sp, #32]
	ldr	r3, [sp, #20]
	cmp	r2, r3
	bls	.L23
	.loc 1 531 24
	ldr	r3, [sp, #24]
	ldr	r2, [r3, #8]
	.loc 1 531 17
	ldr	r3, [sp, #32]
	subs	r3, r2, r3
	str	r3, [sp, #16]
	.loc 1 532 17
	ldr	r2, [sp, #16]
	ldr	r3, [sp, #4]
	cmp	r3, r2
	it	cs
	movcs	r3, r2
	str	r3, [sp, #16]
	.loc 1 542 5
	ldr	r3, [sp, #24]
	ldr	r2, [r3, #4]
	ldr	r3, [sp, #32]
	add	r3, r3, r2
	ldr	r2, [sp, #16]
	mov	r1, r3
	ldr	r0, [sp, #28]
	bl	memcpy
	.loc 1 543 18
	ldr	r2, [sp, #36]
	ldr	r3, [sp, #16]
	add	r3, r3, r2
	str	r3, [sp, #36]
	.loc 1 544 18
	ldr	r2, [sp, #28]
	ldr	r3, [sp, #16]
	add	r3, r3, r2
	str	r3, [sp, #28]
	.loc 1 545 18
	ldr	r2, [sp, #4]
	ldr	r3, [sp, #16]
	subs	r3, r2, r3
	str	r3, [sp, #4]
	.loc 1 546 18
	ldr	r2, [sp, #32]
	ldr	r3, [sp, #16]
	add	r3, r3, r2
	str	r3, [sp, #32]
	.loc 1 551 23
	ldr	r3, [sp, #24]
	ldr	r3, [r3, #8]
	.loc 1 551 8
	ldr	r2, [sp, #32]
	cmp	r2, r3
	bne	.L23
	.loc 1 552 13
	movs	r3, #0
	str	r3, [sp, #32]
.L23:
	.loc 1 558 15
	ldr	r2, [sp, #20]
	ldr	r3, [sp, #32]
	subs	r3, r2, r3
	str	r3, [sp, #16]
	.loc 1 559 15
	ldr	r2, [sp, #16]
	ldr	r3, [sp, #4]
	cmp	r3, r2
	it	cs
	movcs	r3, r2
	str	r3, [sp, #16]
	.loc 1 560 6
	ldr	r3, [sp, #16]
	cmp	r3, #0
	beq	.L24
	.loc 1 570 5
	ldr	r3, [sp, #24]
	ldr	r2, [r3, #4]
	ldr	r3, [sp, #32]
	add	r3, r3, r2
	ldr	r2, [sp, #16]
	mov	r1, r3
	ldr	r0, [sp, #28]
	bl	memcpy
	.loc 1 571 18
	ldr	r2, [sp, #36]
	ldr	r3, [sp, #16]
	add	r3, r3, r2
	str	r3, [sp, #36]
	.loc 1 572 18
	ldr	r2, [sp, #28]
	ldr	r3, [sp, #16]
	add	r3, r3, r2
	str	r3, [sp, #28]
	.loc 1 573 18
	ldr	r2, [sp, #4]
	ldr	r3, [sp, #16]
	subs	r3, r2, r3
	str	r3, [sp, #4]
	.loc 1 574 18
	ldr	r2, [sp, #32]
	ldr	r3, [sp, #16]
	add	r3, r3, r2
	str	r3, [sp, #32]
.L24:
	.loc 1 577 6
	ldr	r3, [sp, #36]
	cmp	r3, #0
	beq	.L25
	.loc 1 578 18
	ldr	r3, [sp, #24]
	ldr	r2, [sp, #32]
	str	r2, [r3, #16]
.L25:
	.loc 1 581 10
	ldr	r3, [sp, #36]
	.loc 1 582 1
	mov	r0, r3
	add	sp, sp, #44
.LCFI16:
	@ sp needed
	ldr	pc, [sp], #4
.L28:
	.align	2
.L27:
	.word	_SEGGER_RTT
.LFE5:
	.size	SEGGER_RTT_ReadNoLock, .-SEGGER_RTT_ReadNoLock
	.section	.text.SEGGER_RTT_Read,"ax",%progbits
	.align	1
	.global	SEGGER_RTT_Read
	.syntax unified
	.thumb
	.thumb_func
	.fpu softvfp
	.type	SEGGER_RTT_Read, %function
SEGGER_RTT_Read:
.LFB6:
	.loc 1 600 84
	@ args = 0, pretend = 0, frame = 24
	@ frame_needed = 0, uses_anonymous_args = 0
	push	{lr}
.LCFI17:
	sub	sp, sp, #28
.LCFI18:
	str	r0, [sp, #12]
	str	r1, [sp, #8]
	str	r2, [sp, #4]
.LBB2:
	.loc 1 603 3
	.syntax unified
@ 603 "C:\Users\Devan\Documents\SEGGER Embedded Studio for ARM Projects\Executable_1\SEGGER\SEGGER_RTT.c" 1
	mrs   r3, basepri  
	mov   r1, #32       
	msr   basepri, r1  
	
@ 0 "" 2
	.thumb
	.syntax unified
	str	r3, [sp, #20]
	.loc 1 607 18
	ldr	r2, [sp, #4]
	ldr	r1, [sp, #8]
	ldr	r0, [sp, #12]
	bl	SEGGER_RTT_ReadNoLock
	str	r0, [sp, #16]
	.loc 1 611 3
	ldr	r3, [sp, #20]
	.syntax unified
@ 611 "C:\Users\Devan\Documents\SEGGER Embedded Studio for ARM Projects\Executable_1\SEGGER\SEGGER_RTT.c" 1
	msr   basepri, r3  
	
@ 0 "" 2
	.thumb
	.syntax unified
.LBE2:
	.loc 1 613 10
	ldr	r3, [sp, #16]
	.loc 1 614 1
	mov	r0, r3
	add	sp, sp, #28
.LCFI19:
	@ sp needed
	ldr	pc, [sp], #4
.LFE6:
	.size	SEGGER_RTT_Read, .-SEGGER_RTT_Read
	.section	.text.SEGGER_RTT_WriteWithOverwriteNoLock,"ax",%progbits
	.align	1
	.global	SEGGER_RTT_WriteWithOverwriteNoLock
	.syntax unified
	.thumb
	.thumb_func
	.fpu softvfp
	.type	SEGGER_RTT_WriteWithOverwriteNoLock, %function
SEGGER_RTT_WriteWithOverwriteNoLock:
.LFB7:
	.loc 1 639 104
	@ args = 0, pretend = 0, frame = 32
	@ frame_needed = 0, uses_anonymous_args = 0
	push	{lr}
.LCFI20:
	sub	sp, sp, #36
.LCFI21:
	str	r0, [sp, #12]
	str	r1, [sp, #8]
	str	r2, [sp, #4]
	.loc 1 647 9
	ldr	r3, [sp, #8]
	str	r3, [sp, #28]
	.loc 1 651 9
	ldr	r3, [sp, #12]
	adds	r2, r3, #1
	mov	r3, r2
	lsls	r3, r3, #1
	add	r3, r3, r2
	lsls	r3, r3, #3
	ldr	r2, .L41
	add	r3, r3, r2
	str	r3, [sp, #20]
	.loc 1 655 12
	ldr	r3, [sp, #20]
	ldr	r2, [r3, #12]
	.loc 1 655 28
	ldr	r3, [sp, #20]
	ldr	r3, [r3, #16]
	.loc 1 655 6
	cmp	r2, r3
	bne	.L32
	.loc 1 656 18
	ldr	r3, [sp, #20]
	ldr	r3, [r3, #8]
	.loc 1 656 11
	subs	r3, r3, #1
	str	r3, [sp, #24]
	b	.L33
.L32:
	.loc 1 657 20
	ldr	r3, [sp, #20]
	ldr	r2, [r3, #12]
	.loc 1 657 35
	ldr	r3, [sp, #20]
	ldr	r3, [r3, #16]
	.loc 1 657 13
	cmp	r2, r3
	bcs	.L34
	.loc 1 658 18
	ldr	r3, [sp, #20]
	ldr	r2, [r3, #16]
	.loc 1 658 33
	ldr	r3, [sp, #20]
	ldr	r3, [r3, #12]
	.loc 1 658 26
	subs	r3, r2, r3
	.loc 1 658 11
	subs	r3, r3, #1
	str	r3, [sp, #24]
	b	.L33
.L34:
	.loc 1 660 18
	ldr	r3, [sp, #20]
	ldr	r2, [r3, #16]
	.loc 1 660 33
	ldr	r3, [sp, #20]
	ldr	r3, [r3, #12]
	.loc 1 660 26
	subs	r2, r2, r3
	.loc 1 660 53
	ldr	r3, [sp, #20]
	ldr	r3, [r3, #8]
	.loc 1 660 46
	add	r3, r3, r2
	.loc 1 660 11
	subs	r3, r3, #1
	str	r3, [sp, #24]
.L33:
	.loc 1 662 6
	ldr	r2, [sp, #4]
	ldr	r3, [sp, #24]
	cmp	r2, r3
	bls	.L35
	.loc 1 663 18
	ldr	r3, [sp, #20]
	ldr	r2, [r3, #16]
	.loc 1 663 31
	ldr	r1, [sp, #4]
	ldr	r3, [sp, #24]
	subs	r3, r1, r3
	.loc 1 663 18
	add	r2, r2, r3
	ldr	r3, [sp, #20]
	str	r2, [r3, #16]
	.loc 1 664 11
	b	.L36
.L37:
	.loc 1 665 20
	ldr	r3, [sp, #20]
	ldr	r2, [r3, #16]
	.loc 1 665 28
	ldr	r3, [sp, #20]
	ldr	r3, [r3, #8]
	.loc 1 665 20
	subs	r2, r2, r3
	ldr	r3, [sp, #20]
	str	r2, [r3, #16]
.L36:
	.loc 1 664 17
	ldr	r3, [sp, #20]
	ldr	r2, [r3, #16]
	.loc 1 664 33
	ldr	r3, [sp, #20]
	ldr	r3, [r3, #8]
	.loc 1 664 11
	cmp	r2, r3
	bcs	.L37
.L35:
	.loc 1 671 16
	ldr	r3, [sp, #20]
	ldr	r2, [r3, #8]
	.loc 1 671 38
	ldr	r3, [sp, #20]
	ldr	r3, [r3, #12]
	.loc 1 671 9
	subs	r3, r2, r3
	str	r3, [sp, #24]
.L40:
	.loc 1 673 8
	ldr	r2, [sp, #24]
	ldr	r3, [sp, #4]
	cmp	r2, r3
	bls	.L38
	.loc 1 685 7
	ldr	r3, [sp, #20]
	ldr	r2, [r3, #4]
	ldr	r3, [sp, #20]
	ldr	r3, [r3, #12]
	add	r3, r3, r2
	ldr	r2, [sp, #4]
	ldr	r1, [sp, #28]
	mov	r0, r3
	bl	memcpy
	.loc 1 686 20
	ldr	r3, [sp, #20]
	ldr	r2, [r3, #12]
	ldr	r3, [sp, #4]
	add	r2, r2, r3
	ldr	r3, [sp, #20]
	str	r2, [r3, #12]
	.loc 1 688 7
	b	.L39
.L38:
	.loc 1 701 7
	ldr	r3, [sp, #20]
	ldr	r2, [r3, #4]
	ldr	r3, [sp, #20]
	ldr	r3, [r3, #12]
	add	r3, r3, r2
	ldr	r2, [sp, #24]
	ldr	r1, [sp, #28]
	mov	r0, r3
	bl	memcpy
	.loc 1 702 13
	ldr	r2, [sp, #28]
	ldr	r3, [sp, #24]
	add	r3, r3, r2
	str	r3, [sp, #28]
	.loc 1 703 20
	ldr	r3, [sp, #20]
	movs	r2, #0
	str	r2, [r3, #12]
	.loc 1 704 16
	ldr	r2, [sp, #4]
	ldr	r3, [sp, #24]
	subs	r3, r2, r3
	str	r3, [sp, #4]
	.loc 1 706 21
	ldr	r3, [sp, #20]
	ldr	r3, [r3, #8]
	.loc 1 706 13
	subs	r3, r3, #1
	str	r3, [sp, #24]
	.loc 1 708 3
	ldr	r3, [sp, #4]
	cmp	r3, #0
	bne	.L40
	.loc 1 709 1
	nop
.L39:
	nop
	add	sp, sp, #36
.LCFI22:
	@ sp needed
	ldr	pc, [sp], #4
.L42:
	.align	2
.L41:
	.word	_SEGGER_RTT
.LFE7:
	.size	SEGGER_RTT_WriteWithOverwriteNoLock, .-SEGGER_RTT_WriteWithOverwriteNoLock
	.section	.text.SEGGER_RTT_WriteSkipNoLock,"ax",%progbits
	.align	1
	.global	SEGGER_RTT_WriteSkipNoLock
	.syntax unified
	.thumb
	.thumb_func
	.fpu softvfp
	.type	SEGGER_RTT_WriteSkipNoLock, %function
SEGGER_RTT_WriteSkipNoLock:
.LFB8:
	.loc 1 735 99
	@ args = 0, pretend = 0, frame = 40
	@ frame_needed = 0, uses_anonymous_args = 0
	push	{lr}
.LCFI23:
	sub	sp, sp, #44
.LCFI24:
	str	r0, [sp, #12]
	str	r1, [sp, #8]
	str	r2, [sp, #4]
	.loc 1 746 9
	ldr	r3, [sp, #8]
	str	r3, [sp, #36]
	.loc 1 750 9
	ldr	r3, [sp, #12]
	adds	r2, r3, #1
	mov	r3, r2
	lsls	r3, r3, #1
	add	r3, r3, r2
	lsls	r3, r3, #3
	ldr	r2, .L50
	add	r3, r3, r2
	str	r3, [sp, #32]
	.loc 1 751 9
	ldr	r3, [sp, #32]
	ldr	r3, [r3, #16]
	str	r3, [sp, #28]
	.loc 1 752 9
	ldr	r3, [sp, #32]
	ldr	r3, [r3, #12]
	str	r3, [sp, #24]
	.loc 1 766 6
	ldr	r2, [sp, #28]
	ldr	r3, [sp, #24]
	cmp	r2, r3
	bhi	.L44
	.loc 1 770 18
	ldr	r3, [sp, #32]
	ldr	r2, [r3, #8]
	.loc 1 770 38
	ldr	r3, [sp, #24]
	subs	r3, r2, r3
	.loc 1 770 11
	subs	r3, r3, #1
	str	r3, [sp, #20]
	.loc 1 771 8
	ldr	r2, [sp, #20]
	ldr	r3, [sp, #4]
	cmp	r2, r3
	bcc	.L45
	.loc 1 780 7
	ldr	r3, [sp, #32]
	ldr	r2, [r3, #4]
	ldr	r3, [sp, #24]
	add	r3, r3, r2
	ldr	r2, [sp, #4]
	ldr	r1, [sp, #36]
	mov	r0, r3
	bl	memcpy
	.loc 1 781 28
	ldr	r2, [sp, #24]
	ldr	r3, [sp, #4]
	add	r2, r2, r3
	.loc 1 781 20
	ldr	r3, [sp, #32]
	str	r2, [r3, #12]
	.loc 1 783 14
	movs	r3, #1
	b	.L46
.L45:
	.loc 1 788 11
	ldr	r2, [sp, #20]
	ldr	r3, [sp, #28]
	add	r3, r3, r2
	str	r3, [sp, #20]
	.loc 1 792 8
	ldr	r2, [sp, #20]
	ldr	r3, [sp, #4]
	cmp	r2, r3
	bcc	.L47
	.loc 1 796 18
	ldr	r3, [sp, #32]
	ldr	r2, [r3, #8]
	.loc 1 796 11
	ldr	r3, [sp, #24]
	subs	r3, r2, r3
	str	r3, [sp, #16]
	.loc 1 797 10
	ldr	r2, [sp, #16]
	ldr	r3, [sp, #4]
	cmp	r2, r3
	bls	.L48
	.loc 1 806 9
	ldr	r3, [sp, #32]
	ldr	r2, [r3, #4]
	ldr	r3, [sp, #24]
	add	r3, r3, r2
	ldr	r2, [sp, #4]
	ldr	r1, [sp, #36]
	mov	r0, r3
	bl	memcpy
	.loc 1 807 30
	ldr	r2, [sp, #24]
	ldr	r3, [sp, #4]
	add	r2, r2, r3
	.loc 1 807 22
	ldr	r3, [sp, #32]
	str	r2, [r3, #12]
	b	.L49
.L48:
	.loc 1 826 9
	ldr	r3, [sp, #32]
	ldr	r2, [r3, #4]
	ldr	r3, [sp, #24]
	add	r3, r3, r2
	ldr	r2, [sp, #16]
	ldr	r1, [sp, #36]
	mov	r0, r3
	bl	memcpy
	.loc 1 827 9
	ldr	r3, [sp, #32]
	ldr	r0, [r3, #4]
	ldr	r2, [sp, #36]
	ldr	r3, [sp, #16]
	adds	r1, r2, r3
	ldr	r2, [sp, #4]
	ldr	r3, [sp, #16]
	subs	r3, r2, r3
	mov	r2, r3
	bl	memcpy
	.loc 1 828 33
	ldr	r2, [sp, #4]
	ldr	r3, [sp, #16]
	subs	r2, r2, r3
	.loc 1 828 22
	ldr	r3, [sp, #32]
	str	r2, [r3, #12]
.L49:
	.loc 1 831 14
	movs	r3, #1
	b	.L46
.L44:
	.loc 1 834 19
	ldr	r2, [sp, #28]
	ldr	r3, [sp, #24]
	subs	r3, r2, r3
	.loc 1 834 11
	subs	r3, r3, #1
	str	r3, [sp, #20]
	.loc 1 835 8
	ldr	r2, [sp, #20]
	ldr	r3, [sp, #4]
	cmp	r2, r3
	bcc	.L47
	.loc 1 844 7
	ldr	r3, [sp, #32]
	ldr	r2, [r3, #4]
	ldr	r3, [sp, #24]
	add	r3, r3, r2
	ldr	r2, [sp, #4]
	ldr	r1, [sp, #36]
	mov	r0, r3
	bl	memcpy
	.loc 1 845 28
	ldr	r2, [sp, #24]
	ldr	r3, [sp, #4]
	add	r2, r2, r3
	.loc 1 845 20
	ldr	r3, [sp, #32]
	str	r2, [r3, #12]
	.loc 1 847 14
	movs	r3, #1
	b	.L46
.L47:
	.loc 1 853 10
	movs	r3, #0
.L46:
	.loc 1 854 1
	mov	r0, r3
	add	sp, sp, #44
.LCFI25:
	@ sp needed
	ldr	pc, [sp], #4
.L51:
	.align	2
.L50:
	.word	_SEGGER_RTT
.LFE8:
	.size	SEGGER_RTT_WriteSkipNoLock, .-SEGGER_RTT_WriteSkipNoLock
	.section	.text.SEGGER_RTT_WriteNoLock,"ax",%progbits
	.align	1
	.global	SEGGER_RTT_WriteNoLock
	.syntax unified
	.thumb
	.thumb_func
	.fpu softvfp
	.type	SEGGER_RTT_WriteNoLock, %function
SEGGER_RTT_WriteNoLock:
.LFB9:
	.loc 1 879 95
	@ args = 0, pretend = 0, frame = 32
	@ frame_needed = 0, uses_anonymous_args = 0
	push	{lr}
.LCFI26:
	sub	sp, sp, #36
.LCFI27:
	str	r0, [sp, #12]
	str	r1, [sp, #8]
	str	r2, [sp, #4]
	.loc 1 885 9
	ldr	r3, [sp, #8]
	str	r3, [sp, #24]
	.loc 1 889 9
	ldr	r3, [sp, #12]
	adds	r2, r3, #1
	mov	r3, r2
	lsls	r3, r3, #1
	add	r3, r3, r2
	lsls	r3, r3, #3
	ldr	r2, .L61
	add	r3, r3, r2
	str	r3, [sp, #20]
	.loc 1 893 16
	ldr	r3, [sp, #20]
	ldr	r3, [r3, #20]
	.loc 1 893 3
	cmp	r3, #2
	beq	.L53
	cmp	r3, #2
	bhi	.L54
	cmp	r3, #0
	beq	.L55
	cmp	r3, #1
	beq	.L56
	b	.L54
.L55:
	.loc 1 899 13
	ldr	r0, [sp, #20]
	bl	_GetAvailWriteSpace
	str	r0, [sp, #16]
	.loc 1 900 8
	ldr	r2, [sp, #16]
	ldr	r3, [sp, #4]
	cmp	r2, r3
	bcs	.L57
	.loc 1 901 14
	movs	r3, #0
	str	r3, [sp, #28]
	.loc 1 906 5
	b	.L59
.L57:
	.loc 1 903 14
	ldr	r3, [sp, #4]
	str	r3, [sp, #28]
	.loc 1 904 7
	ldr	r2, [sp, #4]
	ldr	r1, [sp, #24]
	ldr	r0, [sp, #20]
	bl	_WriteNoCheck
	.loc 1 906 5
	b	.L59
.L56:
	.loc 1 911 13
	ldr	r0, [sp, #20]
	bl	_GetAvailWriteSpace
	str	r0, [sp, #16]
	.loc 1 912 12
	ldr	r2, [sp, #4]
	ldr	r3, [sp, #16]
	cmp	r3, r2
	it	cs
	movcs	r3, r2
	str	r3, [sp, #28]
	.loc 1 913 5
	ldr	r2, [sp, #28]
	ldr	r1, [sp, #24]
	ldr	r0, [sp, #20]
	bl	_WriteNoCheck
	.loc 1 914 5
	b	.L59
.L53:
	.loc 1 919 14
	ldr	r2, [sp, #4]
	ldr	r1, [sp, #24]
	ldr	r0, [sp, #20]
	bl	_WriteBlocking
	str	r0, [sp, #28]
	.loc 1 920 5
	b	.L59
.L54:
	.loc 1 922 12
	movs	r3, #0
	str	r3, [sp, #28]
	.loc 1 923 5
	nop
.L59:
	.loc 1 928 10
	ldr	r3, [sp, #28]
	.loc 1 929 1
	mov	r0, r3
	add	sp, sp, #36
.LCFI28:
	@ sp needed
	ldr	pc, [sp], #4
.L62:
	.align	2
.L61:
	.word	_SEGGER_RTT
.LFE9:
	.size	SEGGER_RTT_WriteNoLock, .-SEGGER_RTT_WriteNoLock
	.section	.text.SEGGER_RTT_Write,"ax",%progbits
	.align	1
	.global	SEGGER_RTT_Write
	.syntax unified
	.thumb
	.thumb_func
	.fpu softvfp
	.type	SEGGER_RTT_Write, %function
SEGGER_RTT_Write:
.LFB10:
	.loc 1 950 89
	@ args = 0, pretend = 0, frame = 24
	@ frame_needed = 0, uses_anonymous_args = 0
	push	{lr}
.LCFI29:
	sub	sp, sp, #28
.LCFI30:
	str	r0, [sp, #12]
	str	r1, [sp, #8]
	str	r2, [sp, #4]
	.loc 1 953 3
	ldr	r3, .L66
	ldrb	r3, [r3]	@ zero_extendqisi2
	cmp	r3, #0
	bne	.L64
	.loc 1 953 3 is_stmt 0 discriminator 1
	bl	_DoInit
.L64:
.LBB3:
	.loc 1 954 3 is_stmt 1
	.syntax unified
@ 954 "C:\Users\Devan\Documents\SEGGER Embedded Studio for ARM Projects\Executable_1\SEGGER\SEGGER_RTT.c" 1
	mrs   r3, basepri  
	mov   r1, #32       
	msr   basepri, r1  
	
@ 0 "" 2
	.thumb
	.syntax unified
	str	r3, [sp, #20]
	.loc 1 958 12
	ldr	r2, [sp, #4]
	ldr	r1, [sp, #8]
	ldr	r0, [sp, #12]
	bl	SEGGER_RTT_WriteNoLock
	str	r0, [sp, #16]
	.loc 1 962 3
	ldr	r3, [sp, #20]
	.syntax unified
@ 962 "C:\Users\Devan\Documents\SEGGER Embedded Studio for ARM Projects\Executable_1\SEGGER\SEGGER_RTT.c" 1
	msr   basepri, r3  
	
@ 0 "" 2
	.thumb
	.syntax unified
.LBE3:
	.loc 1 964 10
	ldr	r3, [sp, #16]
	.loc 1 965 1
	mov	r0, r3
	add	sp, sp, #28
.LCFI31:
	@ sp needed
	ldr	pc, [sp], #4
.L67:
	.align	2
.L66:
	.word	_SEGGER_RTT
.LFE10:
	.size	SEGGER_RTT_Write, .-SEGGER_RTT_Write
	.section	.text.SEGGER_RTT_WriteString,"ax",%progbits
	.align	1
	.global	SEGGER_RTT_WriteString
	.syntax unified
	.thumb
	.thumb_func
	.fpu softvfp
	.type	SEGGER_RTT_WriteString, %function
SEGGER_RTT_WriteString:
.LFB11:
	.loc 1 987 70
	@ args = 0, pretend = 0, frame = 16
	@ frame_needed = 0, uses_anonymous_args = 0
	push	{lr}
.LCFI32:
	sub	sp, sp, #20
.LCFI33:
	str	r0, [sp, #4]
	str	r1, [sp]
	.loc 1 990 9
	ldr	r0, [sp]
	bl	strlen
	str	r0, [sp, #12]
	.loc 1 991 10
	ldr	r2, [sp, #12]
	ldr	r1, [sp]
	ldr	r0, [sp, #4]
	bl	SEGGER_RTT_Write
	mov	r3, r0
	.loc 1 992 1
	mov	r0, r3
	add	sp, sp, #20
.LCFI34:
	@ sp needed
	ldr	pc, [sp], #4
.LFE11:
	.size	SEGGER_RTT_WriteString, .-SEGGER_RTT_WriteString
	.section	.text.SEGGER_RTT_PutCharSkipNoLock,"ax",%progbits
	.align	1
	.global	SEGGER_RTT_PutCharSkipNoLock
	.syntax unified
	.thumb
	.thumb_func
	.fpu softvfp
	.type	SEGGER_RTT_PutCharSkipNoLock, %function
SEGGER_RTT_PutCharSkipNoLock:
.LFB12:
	.loc 1 1017 69
	@ args = 0, pretend = 0, frame = 24
	@ frame_needed = 0, uses_anonymous_args = 0
	@ link register save eliminated.
	sub	sp, sp, #24
.LCFI35:
	str	r0, [sp, #4]
	mov	r3, r1
	strb	r3, [sp, #3]
	.loc 1 1024 9
	ldr	r3, [sp, #4]
	adds	r2, r3, #1
	mov	r3, r2
	lsls	r3, r3, #1
	add	r3, r3, r2
	lsls	r3, r3, #3
	ldr	r2, .L75
	add	r3, r3, r2
	str	r3, [sp, #12]
	.loc 1 1028 16
	ldr	r3, [sp, #12]
	ldr	r3, [r3, #12]
	.loc 1 1028 9
	adds	r3, r3, #1
	str	r3, [sp, #20]
	.loc 1 1029 21
	ldr	r3, [sp, #12]
	ldr	r3, [r3, #8]
	.loc 1 1029 6
	ldr	r2, [sp, #20]
	cmp	r2, r3
	bne	.L71
	.loc 1 1030 11
	movs	r3, #0
	str	r3, [sp, #20]
.L71:
	.loc 1 1035 21
	ldr	r3, [sp, #12]
	ldr	r3, [r3, #16]
	.loc 1 1035 6
	ldr	r2, [sp, #20]
	cmp	r2, r3
	beq	.L72
	.loc 1 1036 10
	ldr	r3, [sp, #12]
	ldr	r2, [r3, #4]
	.loc 1 1036 25
	ldr	r3, [sp, #12]
	ldr	r3, [r3, #12]
	.loc 1 1036 19
	add	r3, r3, r2
	.loc 1 1036 34
	ldrb	r2, [sp, #3]
	strb	r2, [r3]
	.loc 1 1037 18
	ldr	r3, [sp, #12]
	ldr	r2, [sp, #20]
	str	r2, [r3, #12]
	.loc 1 1038 12
	movs	r3, #1
	str	r3, [sp, #16]
	b	.L73
.L72:
	.loc 1 1040 12
	movs	r3, #0
	str	r3, [sp, #16]
.L73:
	.loc 1 1043 10
	ldr	r3, [sp, #16]
	.loc 1 1044 1
	mov	r0, r3
	add	sp, sp, #24
.LCFI36:
	@ sp needed
	bx	lr
.L76:
	.align	2
.L75:
	.word	_SEGGER_RTT
.LFE12:
	.size	SEGGER_RTT_PutCharSkipNoLock, .-SEGGER_RTT_PutCharSkipNoLock
	.section	.text.SEGGER_RTT_PutCharSkip,"ax",%progbits
	.align	1
	.global	SEGGER_RTT_PutCharSkip
	.syntax unified
	.thumb
	.thumb_func
	.fpu softvfp
	.type	SEGGER_RTT_PutCharSkip, %function
SEGGER_RTT_PutCharSkip:
.LFB13:
	.loc 1 1064 63
	@ args = 0, pretend = 0, frame = 24
	@ frame_needed = 0, uses_anonymous_args = 0
	push	{lr}
.LCFI37:
	sub	sp, sp, #28
.LCFI38:
	str	r0, [sp, #4]
	mov	r3, r1
	strb	r3, [sp, #3]
	.loc 1 1071 3
	ldr	r3, .L83
	ldrb	r3, [r3]	@ zero_extendqisi2
	cmp	r3, #0
	bne	.L78
	.loc 1 1071 3 is_stmt 0 discriminator 1
	bl	_DoInit
.L78:
.LBB4:
	.loc 1 1072 3 is_stmt 1
	.syntax unified
@ 1072 "C:\Users\Devan\Documents\SEGGER Embedded Studio for ARM Projects\Executable_1\SEGGER\SEGGER_RTT.c" 1
	mrs   r3, basepri  
	mov   r1, #32       
	msr   basepri, r1  
	
@ 0 "" 2
	.thumb
	.syntax unified
	str	r3, [sp, #12]
	.loc 1 1076 9
	ldr	r3, [sp, #4]
	adds	r2, r3, #1
	mov	r3, r2
	lsls	r3, r3, #1
	add	r3, r3, r2
	lsls	r3, r3, #3
	ldr	r2, .L83
	add	r3, r3, r2
	str	r3, [sp, #8]
	.loc 1 1080 16
	ldr	r3, [sp, #8]
	ldr	r3, [r3, #12]
	.loc 1 1080 9
	adds	r3, r3, #1
	str	r3, [sp, #20]
	.loc 1 1081 21
	ldr	r3, [sp, #8]
	ldr	r3, [r3, #8]
	.loc 1 1081 6
	ldr	r2, [sp, #20]
	cmp	r2, r3
	bne	.L79
	.loc 1 1082 11
	movs	r3, #0
	str	r3, [sp, #20]
.L79:
	.loc 1 1087 21
	ldr	r3, [sp, #8]
	ldr	r3, [r3, #16]
	.loc 1 1087 6
	ldr	r2, [sp, #20]
	cmp	r2, r3
	beq	.L80
	.loc 1 1088 10
	ldr	r3, [sp, #8]
	ldr	r2, [r3, #4]
	.loc 1 1088 25
	ldr	r3, [sp, #8]
	ldr	r3, [r3, #12]
	.loc 1 1088 19
	add	r3, r3, r2
	.loc 1 1088 34
	ldrb	r2, [sp, #3]
	strb	r2, [r3]
	.loc 1 1089 18
	ldr	r3, [sp, #8]
	ldr	r2, [sp, #20]
	str	r2, [r3, #12]
	.loc 1 1090 12
	movs	r3, #1
	str	r3, [sp, #16]
	b	.L81
.L80:
	.loc 1 1092 12
	movs	r3, #0
	str	r3, [sp, #16]
.L81:
	.loc 1 1097 3
	ldr	r3, [sp, #12]
	.syntax unified
@ 1097 "C:\Users\Devan\Documents\SEGGER Embedded Studio for ARM Projects\Executable_1\SEGGER\SEGGER_RTT.c" 1
	msr   basepri, r3  
	
@ 0 "" 2
	.thumb
	.syntax unified
.LBE4:
	.loc 1 1099 10
	ldr	r3, [sp, #16]
	.loc 1 1100 1
	mov	r0, r3
	add	sp, sp, #28
.LCFI39:
	@ sp needed
	ldr	pc, [sp], #4
.L84:
	.align	2
.L83:
	.word	_SEGGER_RTT
.LFE13:
	.size	SEGGER_RTT_PutCharSkip, .-SEGGER_RTT_PutCharSkip
	.section	.text.SEGGER_RTT_PutChar,"ax",%progbits
	.align	1
	.global	SEGGER_RTT_PutChar
	.syntax unified
	.thumb
	.thumb_func
	.fpu softvfp
	.type	SEGGER_RTT_PutChar, %function
SEGGER_RTT_PutChar:
.LFB14:
	.loc 1 1120 59
	@ args = 0, pretend = 0, frame = 24
	@ frame_needed = 0, uses_anonymous_args = 0
	push	{lr}
.LCFI40:
	sub	sp, sp, #28
.LCFI41:
	str	r0, [sp, #4]
	mov	r3, r1
	strb	r3, [sp, #3]
	.loc 1 1127 3
	ldr	r3, .L93
	ldrb	r3, [r3]	@ zero_extendqisi2
	cmp	r3, #0
	bne	.L86
	.loc 1 1127 3 is_stmt 0 discriminator 1
	bl	_DoInit
.L86:
.LBB5:
	.loc 1 1128 3 is_stmt 1
	.syntax unified
@ 1128 "C:\Users\Devan\Documents\SEGGER Embedded Studio for ARM Projects\Executable_1\SEGGER\SEGGER_RTT.c" 1
	mrs   r3, basepri  
	mov   r1, #32       
	msr   basepri, r1  
	
@ 0 "" 2
	.thumb
	.syntax unified
	str	r3, [sp, #12]
	.loc 1 1132 9
	ldr	r3, [sp, #4]
	adds	r2, r3, #1
	mov	r3, r2
	lsls	r3, r3, #1
	add	r3, r3, r2
	lsls	r3, r3, #3
	ldr	r2, .L93
	add	r3, r3, r2
	str	r3, [sp, #8]
	.loc 1 1136 16
	ldr	r3, [sp, #8]
	ldr	r3, [r3, #12]
	.loc 1 1136 9
	adds	r3, r3, #1
	str	r3, [sp, #20]
	.loc 1 1137 21
	ldr	r3, [sp, #8]
	ldr	r3, [r3, #8]
	.loc 1 1137 6
	ldr	r2, [sp, #20]
	cmp	r2, r3
	bne	.L87
	.loc 1 1138 11
	movs	r3, #0
	str	r3, [sp, #20]
.L87:
	.loc 1 1143 12
	ldr	r3, [sp, #8]
	ldr	r3, [r3, #20]
	.loc 1 1143 6
	cmp	r3, #2
	bne	.L88
	.loc 1 1144 11
	nop
.L89:
	.loc 1 1144 26 discriminator 1
	ldr	r3, [sp, #8]
	ldr	r3, [r3, #16]
	.loc 1 1144 11 discriminator 1
	ldr	r2, [sp, #20]
	cmp	r2, r3
	beq	.L89
.L88:
	.loc 1 1151 21
	ldr	r3, [sp, #8]
	ldr	r3, [r3, #16]
	.loc 1 1151 6
	ldr	r2, [sp, #20]
	cmp	r2, r3
	beq	.L90
	.loc 1 1152 10
	ldr	r3, [sp, #8]
	ldr	r2, [r3, #4]
	.loc 1 1152 25
	ldr	r3, [sp, #8]
	ldr	r3, [r3, #12]
	.loc 1 1152 19
	add	r3, r3, r2
	.loc 1 1152 34
	ldrb	r2, [sp, #3]
	strb	r2, [r3]
	.loc 1 1153 18
	ldr	r3, [sp, #8]
	ldr	r2, [sp, #20]
	str	r2, [r3, #12]
	.loc 1 1154 12
	movs	r3, #1
	str	r3, [sp, #16]
	b	.L91
.L90:
	.loc 1 1156 12
	movs	r3, #0
	str	r3, [sp, #16]
.L91:
	.loc 1 1161 3
	ldr	r3, [sp, #12]
	.syntax unified
@ 1161 "C:\Users\Devan\Documents\SEGGER Embedded Studio for ARM Projects\Executable_1\SEGGER\SEGGER_RTT.c" 1
	msr   basepri, r3  
	
@ 0 "" 2
	.thumb
	.syntax unified
.LBE5:
	.loc 1 1163 10
	ldr	r3, [sp, #16]
	.loc 1 1164 1
	mov	r0, r3
	add	sp, sp, #28
.LCFI42:
	@ sp needed
	ldr	pc, [sp], #4
.L94:
	.align	2
.L93:
	.word	_SEGGER_RTT
.LFE14:
	.size	SEGGER_RTT_PutChar, .-SEGGER_RTT_PutChar
	.section	.text.SEGGER_RTT_GetKey,"ax",%progbits
	.align	1
	.global	SEGGER_RTT_GetKey
	.syntax unified
	.thumb
	.thumb_func
	.fpu softvfp
	.type	SEGGER_RTT_GetKey, %function
SEGGER_RTT_GetKey:
.LFB15:
	.loc 1 1181 29
	@ args = 0, pretend = 0, frame = 8
	@ frame_needed = 0, uses_anonymous_args = 0
	push	{lr}
.LCFI43:
	sub	sp, sp, #12
.LCFI44:
	.loc 1 1185 12
	add	r3, sp, #3
	movs	r2, #1
	mov	r1, r3
	movs	r0, #0
	bl	SEGGER_RTT_Read
	mov	r3, r0
	.loc 1 1185 5
	str	r3, [sp, #4]
	.loc 1 1186 6
	ldr	r3, [sp, #4]
	cmp	r3, #1
	bne	.L96
	.loc 1 1187 9
	ldrb	r3, [sp, #3]	@ zero_extendqisi2
	.loc 1 1187 7
	str	r3, [sp, #4]
	b	.L97
.L96:
	.loc 1 1189 7
	mov	r3, #-1
	str	r3, [sp, #4]
.L97:
	.loc 1 1191 10
	ldr	r3, [sp, #4]
	.loc 1 1192 1
	mov	r0, r3
	add	sp, sp, #12
.LCFI45:
	@ sp needed
	ldr	pc, [sp], #4
.LFE15:
	.size	SEGGER_RTT_GetKey, .-SEGGER_RTT_GetKey
	.section	.text.SEGGER_RTT_WaitKey,"ax",%progbits
	.align	1
	.global	SEGGER_RTT_WaitKey
	.syntax unified
	.thumb
	.thumb_func
	.fpu softvfp
	.type	SEGGER_RTT_WaitKey, %function
SEGGER_RTT_WaitKey:
.LFB16:
	.loc 1 1209 30
	@ args = 0, pretend = 0, frame = 8
	@ frame_needed = 0, uses_anonymous_args = 0
	push	{lr}
.LCFI46:
	sub	sp, sp, #12
.LCFI47:
.L100:
	.loc 1 1213 9 discriminator 1
	bl	SEGGER_RTT_GetKey
	str	r0, [sp, #4]
	.loc 1 1214 3 discriminator 1
	ldr	r3, [sp, #4]
	cmp	r3, #0
	blt	.L100
	.loc 1 1215 10
	ldr	r3, [sp, #4]
	.loc 1 1216 1
	mov	r0, r3
	add	sp, sp, #12
.LCFI48:
	@ sp needed
	ldr	pc, [sp], #4
.LFE16:
	.size	SEGGER_RTT_WaitKey, .-SEGGER_RTT_WaitKey
	.section	.text.SEGGER_RTT_HasKey,"ax",%progbits
	.align	1
	.global	SEGGER_RTT_HasKey
	.syntax unified
	.thumb
	.thumb_func
	.fpu softvfp
	.type	SEGGER_RTT_HasKey, %function
SEGGER_RTT_HasKey:
.LFB17:
	.loc 1 1232 29
	@ args = 0, pretend = 0, frame = 8
	@ frame_needed = 0, uses_anonymous_args = 0
	push	{lr}
.LCFI49:
	sub	sp, sp, #12
.LCFI50:
	.loc 1 1236 3
	ldr	r3, .L107
	ldrb	r3, [r3]	@ zero_extendqisi2
	cmp	r3, #0
	bne	.L103
	.loc 1 1236 3 is_stmt 0 discriminator 1
	bl	_DoInit
.L103:
	.loc 1 1237 9 is_stmt 1
	ldr	r3, .L107
	ldr	r3, [r3, #88]
	str	r3, [sp]
	.loc 1 1238 36
	ldr	r3, .L107
	ldr	r3, [r3, #84]
	.loc 1 1238 6
	ldr	r2, [sp]
	cmp	r2, r3
	beq	.L104
	.loc 1 1239 7
	movs	r3, #1
	str	r3, [sp, #4]
	b	.L105
.L104:
	.loc 1 1241 7
	movs	r3, #0
	str	r3, [sp, #4]
.L105:
	.loc 1 1243 10
	ldr	r3, [sp, #4]
	.loc 1 1244 1
	mov	r0, r3
	add	sp, sp, #12
.LCFI51:
	@ sp needed
	ldr	pc, [sp], #4
.L108:
	.align	2
.L107:
	.word	_SEGGER_RTT
.LFE17:
	.size	SEGGER_RTT_HasKey, .-SEGGER_RTT_HasKey
	.section	.text.SEGGER_RTT_HasData,"ax",%progbits
	.align	1
	.global	SEGGER_RTT_HasData
	.syntax unified
	.thumb
	.thumb_func
	.fpu softvfp
	.type	SEGGER_RTT_HasData, %function
SEGGER_RTT_HasData:
.LFB18:
	.loc 1 1258 51
	@ args = 0, pretend = 0, frame = 16
	@ frame_needed = 0, uses_anonymous_args = 0
	@ link register save eliminated.
	sub	sp, sp, #16
.LCFI52:
	str	r0, [sp, #4]
	.loc 1 1262 9
	ldr	r2, [sp, #4]
	mov	r3, r2
	lsls	r3, r3, #1
	add	r3, r3, r2
	lsls	r3, r3, #3
	adds	r3, r3, #72
	ldr	r2, .L111
	add	r3, r3, r2
	str	r3, [sp, #12]
	.loc 1 1263 5
	ldr	r3, [sp, #12]
	ldr	r3, [r3, #12]
	str	r3, [sp, #8]
	.loc 1 1264 19
	ldr	r3, [sp, #12]
	ldr	r3, [r3, #16]
	.loc 1 1264 12
	ldr	r2, [sp, #8]
	subs	r3, r2, r3
	.loc 1 1265 1
	mov	r0, r3
	add	sp, sp, #16
.LCFI53:
	@ sp needed
	bx	lr
.L112:
	.align	2
.L111:
	.word	_SEGGER_RTT
.LFE18:
	.size	SEGGER_RTT_HasData, .-SEGGER_RTT_HasData
	.section	.text.SEGGER_RTT_HasDataUp,"ax",%progbits
	.align	1
	.global	SEGGER_RTT_HasDataUp
	.syntax unified
	.thumb
	.thumb_func
	.fpu softvfp
	.type	SEGGER_RTT_HasDataUp, %function
SEGGER_RTT_HasDataUp:
.LFB19:
	.loc 1 1279 53
	@ args = 0, pretend = 0, frame = 16
	@ frame_needed = 0, uses_anonymous_args = 0
	@ link register save eliminated.
	sub	sp, sp, #16
.LCFI54:
	str	r0, [sp, #4]
	.loc 1 1283 9
	ldr	r3, [sp, #4]
	adds	r2, r3, #1
	mov	r3, r2
	lsls	r3, r3, #1
	add	r3, r3, r2
	lsls	r3, r3, #3
	ldr	r2, .L115
	add	r3, r3, r2
	str	r3, [sp, #12]
	.loc 1 1284 5
	ldr	r3, [sp, #12]
	ldr	r3, [r3, #16]
	str	r3, [sp, #8]
	.loc 1 1285 15
	ldr	r3, [sp, #12]
	ldr	r2, [r3, #12]
	.loc 1 1285 23
	ldr	r3, [sp, #8]
	subs	r3, r2, r3
	.loc 1 1286 1
	mov	r0, r3
	add	sp, sp, #16
.LCFI55:
	@ sp needed
	bx	lr
.L116:
	.align	2
.L115:
	.word	_SEGGER_RTT
.LFE19:
	.size	SEGGER_RTT_HasDataUp, .-SEGGER_RTT_HasDataUp
	.section	.text.SEGGER_RTT_AllocDownBuffer,"ax",%progbits
	.align	1
	.global	SEGGER_RTT_AllocDownBuffer
	.syntax unified
	.thumb
	.thumb_func
	.fpu softvfp
	.type	SEGGER_RTT_AllocDownBuffer, %function
SEGGER_RTT_AllocDownBuffer:
.LFB20:
	.loc 1 1307 103
	@ args = 0, pretend = 0, frame = 24
	@ frame_needed = 0, uses_anonymous_args = 0
	push	{lr}
.LCFI56:
	sub	sp, sp, #28
.LCFI57:
	str	r0, [sp, #12]
	str	r1, [sp, #8]
	str	r2, [sp, #4]
	str	r3, [sp]
	.loc 1 1310 3
	ldr	r3, .L126
	ldrb	r3, [r3]	@ zero_extendqisi2
	cmp	r3, #0
	bne	.L118
	.loc 1 1310 3 is_stmt 0 discriminator 1
	bl	_DoInit
.L118:
.LBB6:
	.loc 1 1311 3 is_stmt 1
	.syntax unified
@ 1311 "C:\Users\Devan\Documents\SEGGER Embedded Studio for ARM Projects\Executable_1\SEGGER\SEGGER_RTT.c" 1
	mrs   r3, basepri  
	mov   r1, #32       
	msr   basepri, r1  
	
@ 0 "" 2
	.thumb
	.syntax unified
	str	r3, [sp, #16]
	.loc 1 1312 15
	movs	r3, #0
	str	r3, [sp, #20]
.L121:
	.loc 1 1314 39
	ldr	r1, .L126
	ldr	r2, [sp, #20]
	mov	r3, r2
	lsls	r3, r3, #1
	add	r3, r3, r2
	lsls	r3, r3, #3
	add	r3, r3, r1
	adds	r3, r3, #76
	ldr	r3, [r3]
	.loc 1 1314 8
	cmp	r3, #0
	beq	.L125
	.loc 1 1317 16
	ldr	r3, [sp, #20]
	adds	r3, r3, #1
	str	r3, [sp, #20]
	.loc 1 1318 37
	ldr	r3, .L126
	ldr	r3, [r3, #20]
	.loc 1 1318 3
	ldr	r2, [sp, #20]
	cmp	r2, r3
	blt	.L121
	b	.L120
.L125:
	.loc 1 1315 7
	nop
.L120:
	.loc 1 1319 32
	ldr	r3, .L126
	ldr	r3, [r3, #20]
	.loc 1 1319 6
	ldr	r2, [sp, #20]
	cmp	r2, r3
	bge	.L122
	.loc 1 1320 49
	ldr	r1, .L126
	ldr	r2, [sp, #20]
	mov	r3, r2
	lsls	r3, r3, #1
	add	r3, r3, r2
	lsls	r3, r3, #3
	add	r3, r3, r1
	adds	r3, r3, #72
	ldr	r2, [sp, #12]
	str	r2, [r3]
	.loc 1 1321 49
	ldr	r1, .L126
	ldr	r2, [sp, #20]
	mov	r3, r2
	lsls	r3, r3, #1
	add	r3, r3, r2
	lsls	r3, r3, #3
	add	r3, r3, r1
	adds	r3, r3, #76
	ldr	r2, [sp, #8]
	str	r2, [r3]
	.loc 1 1322 49
	ldr	r1, .L126
	ldr	r2, [sp, #20]
	mov	r3, r2
	lsls	r3, r3, #1
	add	r3, r3, r2
	lsls	r3, r3, #3
	add	r3, r3, r1
	adds	r3, r3, #80
	ldr	r2, [sp, #4]
	str	r2, [r3]
	.loc 1 1323 49
	ldr	r1, .L126
	ldr	r2, [sp, #20]
	mov	r3, r2
	lsls	r3, r3, #1
	add	r3, r3, r2
	lsls	r3, r3, #3
	add	r3, r3, r1
	adds	r3, r3, #88
	movs	r2, #0
	str	r2, [r3]
	.loc 1 1324 49
	ldr	r1, .L126
	ldr	r2, [sp, #20]
	mov	r3, r2
	lsls	r3, r3, #1
	add	r3, r3, r2
	lsls	r3, r3, #3
	add	r3, r3, r1
	adds	r3, r3, #84
	movs	r2, #0
	str	r2, [r3]
	.loc 1 1325 49
	ldr	r1, .L126
	ldr	r2, [sp, #20]
	mov	r3, r2
	lsls	r3, r3, #1
	add	r3, r3, r2
	lsls	r3, r3, #3
	add	r3, r3, r1
	adds	r3, r3, #92
	ldr	r2, [sp]
	str	r2, [r3]
	b	.L123
.L122:
	.loc 1 1327 17
	mov	r3, #-1
	str	r3, [sp, #20]
.L123:
	.loc 1 1329 3
	ldr	r3, [sp, #16]
	.syntax unified
@ 1329 "C:\Users\Devan\Documents\SEGGER Embedded Studio for ARM Projects\Executable_1\SEGGER\SEGGER_RTT.c" 1
	msr   basepri, r3  
	
@ 0 "" 2
	.thumb
	.syntax unified
.LBE6:
	.loc 1 1330 10
	ldr	r3, [sp, #20]
	.loc 1 1331 1
	mov	r0, r3
	add	sp, sp, #28
.LCFI58:
	@ sp needed
	ldr	pc, [sp], #4
.L127:
	.align	2
.L126:
	.word	_SEGGER_RTT
.LFE20:
	.size	SEGGER_RTT_AllocDownBuffer, .-SEGGER_RTT_AllocDownBuffer
	.section	.text.SEGGER_RTT_AllocUpBuffer,"ax",%progbits
	.align	1
	.global	SEGGER_RTT_AllocUpBuffer
	.syntax unified
	.thumb
	.thumb_func
	.fpu softvfp
	.type	SEGGER_RTT_AllocUpBuffer, %function
SEGGER_RTT_AllocUpBuffer:
.LFB21:
	.loc 1 1352 101
	@ args = 0, pretend = 0, frame = 24
	@ frame_needed = 0, uses_anonymous_args = 0
	push	{lr}
.LCFI59:
	sub	sp, sp, #28
.LCFI60:
	str	r0, [sp, #12]
	str	r1, [sp, #8]
	str	r2, [sp, #4]
	str	r3, [sp]
	.loc 1 1355 3
	ldr	r3, .L137
	ldrb	r3, [r3]	@ zero_extendqisi2
	cmp	r3, #0
	bne	.L129
	.loc 1 1355 3 is_stmt 0 discriminator 1
	bl	_DoInit
.L129:
.LBB7:
	.loc 1 1356 3 is_stmt 1
	.syntax unified
@ 1356 "C:\Users\Devan\Documents\SEGGER Embedded Studio for ARM Projects\Executable_1\SEGGER\SEGGER_RTT.c" 1
	mrs   r3, basepri  
	mov   r1, #32       
	msr   basepri, r1  
	
@ 0 "" 2
	.thumb
	.syntax unified
	str	r3, [sp, #16]
	.loc 1 1357 15
	movs	r3, #0
	str	r3, [sp, #20]
.L132:
	.loc 1 1359 37
	ldr	r1, .L137
	ldr	r3, [sp, #20]
	adds	r2, r3, #1
	mov	r3, r2
	lsls	r3, r3, #1
	add	r3, r3, r2
	lsls	r3, r3, #3
	add	r3, r3, r1
	adds	r3, r3, #4
	ldr	r3, [r3]
	.loc 1 1359 8
	cmp	r3, #0
	beq	.L136
	.loc 1 1362 16
	ldr	r3, [sp, #20]
	adds	r3, r3, #1
	str	r3, [sp, #20]
	.loc 1 1363 37
	ldr	r3, .L137
	ldr	r3, [r3, #16]
	.loc 1 1363 3
	ldr	r2, [sp, #20]
	cmp	r2, r3
	blt	.L132
	b	.L131
.L136:
	.loc 1 1360 7
	nop
.L131:
	.loc 1 1364 32
	ldr	r3, .L137
	ldr	r3, [r3, #16]
	.loc 1 1364 6
	ldr	r2, [sp, #20]
	cmp	r2, r3
	bge	.L133
	.loc 1 1365 47
	ldr	r1, .L137
	ldr	r3, [sp, #20]
	adds	r2, r3, #1
	mov	r3, r2
	lsls	r3, r3, #1
	add	r3, r3, r2
	lsls	r3, r3, #3
	add	r3, r3, r1
	ldr	r2, [sp, #12]
	str	r2, [r3]
	.loc 1 1366 47
	ldr	r1, .L137
	ldr	r3, [sp, #20]
	adds	r2, r3, #1
	mov	r3, r2
	lsls	r3, r3, #1
	add	r3, r3, r2
	lsls	r3, r3, #3
	add	r3, r3, r1
	adds	r3, r3, #4
	ldr	r2, [sp, #8]
	str	r2, [r3]
	.loc 1 1367 47
	ldr	r1, .L137
	ldr	r2, [sp, #20]
	mov	r3, r2
	lsls	r3, r3, #1
	add	r3, r3, r2
	lsls	r3, r3, #3
	add	r3, r3, r1
	adds	r3, r3, #32
	ldr	r2, [sp, #4]
	str	r2, [r3]
	.loc 1 1368 47
	ldr	r1, .L137
	ldr	r2, [sp, #20]
	mov	r3, r2
	lsls	r3, r3, #1
	add	r3, r3, r2
	lsls	r3, r3, #3
	add	r3, r3, r1
	adds	r3, r3, #40
	movs	r2, #0
	str	r2, [r3]
	.loc 1 1369 47
	ldr	r1, .L137
	ldr	r2, [sp, #20]
	mov	r3, r2
	lsls	r3, r3, #1
	add	r3, r3, r2
	lsls	r3, r3, #3
	add	r3, r3, r1
	adds	r3, r3, #36
	movs	r2, #0
	str	r2, [r3]
	.loc 1 1370 47
	ldr	r1, .L137
	ldr	r2, [sp, #20]
	mov	r3, r2
	lsls	r3, r3, #1
	add	r3, r3, r2
	lsls	r3, r3, #3
	add	r3, r3, r1
	adds	r3, r3, #44
	ldr	r2, [sp]
	str	r2, [r3]
	b	.L134
.L133:
	.loc 1 1372 17
	mov	r3, #-1
	str	r3, [sp, #20]
.L134:
	.loc 1 1374 3
	ldr	r3, [sp, #16]
	.syntax unified
@ 1374 "C:\Users\Devan\Documents\SEGGER Embedded Studio for ARM Projects\Executable_1\SEGGER\SEGGER_RTT.c" 1
	msr   basepri, r3  
	
@ 0 "" 2
	.thumb
	.syntax unified
.LBE7:
	.loc 1 1375 10
	ldr	r3, [sp, #20]
	.loc 1 1376 1
	mov	r0, r3
	add	sp, sp, #28
.LCFI61:
	@ sp needed
	ldr	pc, [sp], #4
.L138:
	.align	2
.L137:
	.word	_SEGGER_RTT
.LFE21:
	.size	SEGGER_RTT_AllocUpBuffer, .-SEGGER_RTT_AllocUpBuffer
	.section	.text.SEGGER_RTT_ConfigUpBuffer,"ax",%progbits
	.align	1
	.global	SEGGER_RTT_ConfigUpBuffer
	.syntax unified
	.thumb
	.thumb_func
	.fpu softvfp
	.type	SEGGER_RTT_ConfigUpBuffer, %function
SEGGER_RTT_ConfigUpBuffer:
.LFB22:
	.loc 1 1403 124
	@ args = 4, pretend = 0, frame = 24
	@ frame_needed = 0, uses_anonymous_args = 0
	push	{lr}
.LCFI62:
	sub	sp, sp, #28
.LCFI63:
	str	r0, [sp, #12]
	str	r1, [sp, #8]
	str	r2, [sp, #4]
	str	r3, [sp]
	.loc 1 1406 3
	ldr	r3, .L145
	ldrb	r3, [r3]	@ zero_extendqisi2
	cmp	r3, #0
	bne	.L140
	.loc 1 1406 3 is_stmt 0 discriminator 1
	bl	_DoInit
.L140:
	.loc 1 1407 42 is_stmt 1
	ldr	r3, .L145
	ldr	r3, [r3, #16]
	.loc 1 1407 21
	mov	r2, r3
	.loc 1 1407 6
	ldr	r3, [sp, #12]
	cmp	r3, r2
	bcs	.L141
.LBB8:
	.loc 1 1408 5
	.syntax unified
@ 1408 "C:\Users\Devan\Documents\SEGGER Embedded Studio for ARM Projects\Executable_1\SEGGER\SEGGER_RTT.c" 1
	mrs   r3, basepri  
	mov   r1, #32       
	msr   basepri, r1  
	
@ 0 "" 2
	.thumb
	.syntax unified
	str	r3, [sp, #16]
	.loc 1 1409 8
	ldr	r3, [sp, #12]
	cmp	r3, #0
	beq	.L142
	.loc 1 1410 49
	ldr	r1, .L145
	ldr	r3, [sp, #12]
	adds	r2, r3, #1
	mov	r3, r2
	lsls	r3, r3, #1
	add	r3, r3, r2
	lsls	r3, r3, #3
	add	r3, r3, r1
	ldr	r2, [sp, #8]
	str	r2, [r3]
	.loc 1 1411 49
	ldr	r1, .L145
	ldr	r3, [sp, #12]
	adds	r2, r3, #1
	mov	r3, r2
	lsls	r3, r3, #1
	add	r3, r3, r2
	lsls	r3, r3, #3
	add	r3, r3, r1
	adds	r3, r3, #4
	ldr	r2, [sp, #4]
	str	r2, [r3]
	.loc 1 1412 49
	ldr	r1, .L145
	ldr	r2, [sp, #12]
	mov	r3, r2
	lsls	r3, r3, #1
	add	r3, r3, r2
	lsls	r3, r3, #3
	add	r3, r3, r1
	adds	r3, r3, #32
	ldr	r2, [sp]
	str	r2, [r3]
	.loc 1 1413 49
	ldr	r1, .L145
	ldr	r2, [sp, #12]
	mov	r3, r2
	lsls	r3, r3, #1
	add	r3, r3, r2
	lsls	r3, r3, #3
	add	r3, r3, r1
	adds	r3, r3, #40
	movs	r2, #0
	str	r2, [r3]
	.loc 1 1414 49
	ldr	r1, .L145
	ldr	r2, [sp, #12]
	mov	r3, r2
	lsls	r3, r3, #1
	add	r3, r3, r2
	lsls	r3, r3, #3
	add	r3, r3, r1
	adds	r3, r3, #36
	movs	r2, #0
	str	r2, [r3]
.L142:
	.loc 1 1416 49
	ldr	r1, .L145
	ldr	r2, [sp, #12]
	mov	r3, r2
	lsls	r3, r3, #1
	add	r3, r3, r2
	lsls	r3, r3, #3
	add	r3, r3, r1
	adds	r3, r3, #44
	ldr	r2, [sp, #32]
	str	r2, [r3]
	.loc 1 1417 5
	ldr	r3, [sp, #16]
	.syntax unified
@ 1417 "C:\Users\Devan\Documents\SEGGER Embedded Studio for ARM Projects\Executable_1\SEGGER\SEGGER_RTT.c" 1
	msr   basepri, r3  
	
@ 0 "" 2
	.thumb
	.syntax unified
.LBE8:
	.loc 1 1418 7
	movs	r3, #0
	str	r3, [sp, #20]
	b	.L143
.L141:
	.loc 1 1420 7
	mov	r3, #-1
	str	r3, [sp, #20]
.L143:
	.loc 1 1422 10
	ldr	r3, [sp, #20]
	.loc 1 1423 1
	mov	r0, r3
	add	sp, sp, #28
.LCFI64:
	@ sp needed
	ldr	pc, [sp], #4
.L146:
	.align	2
.L145:
	.word	_SEGGER_RTT
.LFE22:
	.size	SEGGER_RTT_ConfigUpBuffer, .-SEGGER_RTT_ConfigUpBuffer
	.section	.text.SEGGER_RTT_ConfigDownBuffer,"ax",%progbits
	.align	1
	.global	SEGGER_RTT_ConfigDownBuffer
	.syntax unified
	.thumb
	.thumb_func
	.fpu softvfp
	.type	SEGGER_RTT_ConfigDownBuffer, %function
SEGGER_RTT_ConfigDownBuffer:
.LFB23:
	.loc 1 1450 126
	@ args = 4, pretend = 0, frame = 24
	@ frame_needed = 0, uses_anonymous_args = 0
	push	{lr}
.LCFI65:
	sub	sp, sp, #28
.LCFI66:
	str	r0, [sp, #12]
	str	r1, [sp, #8]
	str	r2, [sp, #4]
	str	r3, [sp]
	.loc 1 1453 3
	ldr	r3, .L153
	ldrb	r3, [r3]	@ zero_extendqisi2
	cmp	r3, #0
	bne	.L148
	.loc 1 1453 3 is_stmt 0 discriminator 1
	bl	_DoInit
.L148:
	.loc 1 1454 42 is_stmt 1
	ldr	r3, .L153
	ldr	r3, [r3, #20]
	.loc 1 1454 21
	mov	r2, r3
	.loc 1 1454 6
	ldr	r3, [sp, #12]
	cmp	r3, r2
	bcs	.L149
.LBB9:
	.loc 1 1455 5
	.syntax unified
@ 1455 "C:\Users\Devan\Documents\SEGGER Embedded Studio for ARM Projects\Executable_1\SEGGER\SEGGER_RTT.c" 1
	mrs   r3, basepri  
	mov   r1, #32       
	msr   basepri, r1  
	
@ 0 "" 2
	.thumb
	.syntax unified
	str	r3, [sp, #16]
	.loc 1 1456 8
	ldr	r3, [sp, #12]
	cmp	r3, #0
	beq	.L150
	.loc 1 1457 51
	ldr	r1, .L153
	ldr	r2, [sp, #12]
	mov	r3, r2
	lsls	r3, r3, #1
	add	r3, r3, r2
	lsls	r3, r3, #3
	add	r3, r3, r1
	adds	r3, r3, #72
	ldr	r2, [sp, #8]
	str	r2, [r3]
	.loc 1 1458 51
	ldr	r1, .L153
	ldr	r2, [sp, #12]
	mov	r3, r2
	lsls	r3, r3, #1
	add	r3, r3, r2
	lsls	r3, r3, #3
	add	r3, r3, r1
	adds	r3, r3, #76
	ldr	r2, [sp, #4]
	str	r2, [r3]
	.loc 1 1459 51
	ldr	r1, .L153
	ldr	r2, [sp, #12]
	mov	r3, r2
	lsls	r3, r3, #1
	add	r3, r3, r2
	lsls	r3, r3, #3
	add	r3, r3, r1
	adds	r3, r3, #80
	ldr	r2, [sp]
	str	r2, [r3]
	.loc 1 1460 51
	ldr	r1, .L153
	ldr	r2, [sp, #12]
	mov	r3, r2
	lsls	r3, r3, #1
	add	r3, r3, r2
	lsls	r3, r3, #3
	add	r3, r3, r1
	adds	r3, r3, #88
	movs	r2, #0
	str	r2, [r3]
	.loc 1 1461 51
	ldr	r1, .L153
	ldr	r2, [sp, #12]
	mov	r3, r2
	lsls	r3, r3, #1
	add	r3, r3, r2
	lsls	r3, r3, #3
	add	r3, r3, r1
	adds	r3, r3, #84
	movs	r2, #0
	str	r2, [r3]
.L150:
	.loc 1 1463 51
	ldr	r1, .L153
	ldr	r2, [sp, #12]
	mov	r3, r2
	lsls	r3, r3, #1
	add	r3, r3, r2
	lsls	r3, r3, #3
	add	r3, r3, r1
	adds	r3, r3, #92
	ldr	r2, [sp, #32]
	str	r2, [r3]
	.loc 1 1464 5
	ldr	r3, [sp, #16]
	.syntax unified
@ 1464 "C:\Users\Devan\Documents\SEGGER Embedded Studio for ARM Projects\Executable_1\SEGGER\SEGGER_RTT.c" 1
	msr   basepri, r3  
	
@ 0 "" 2
	.thumb
	.syntax unified
.LBE9:
	.loc 1 1465 7
	movs	r3, #0
	str	r3, [sp, #20]
	b	.L151
.L149:
	.loc 1 1467 7
	mov	r3, #-1
	str	r3, [sp, #20]
.L151:
	.loc 1 1469 10
	ldr	r3, [sp, #20]
	.loc 1 1470 1
	mov	r0, r3
	add	sp, sp, #28
.LCFI67:
	@ sp needed
	ldr	pc, [sp], #4
.L154:
	.align	2
.L153:
	.word	_SEGGER_RTT
.LFE23:
	.size	SEGGER_RTT_ConfigDownBuffer, .-SEGGER_RTT_ConfigDownBuffer
	.section	.text.SEGGER_RTT_SetNameUpBuffer,"ax",%progbits
	.align	1
	.global	SEGGER_RTT_SetNameUpBuffer
	.syntax unified
	.thumb
	.thumb_func
	.fpu softvfp
	.type	SEGGER_RTT_SetNameUpBuffer, %function
SEGGER_RTT_SetNameUpBuffer:
.LFB24:
	.loc 1 1488 73
	@ args = 0, pretend = 0, frame = 16
	@ frame_needed = 0, uses_anonymous_args = 0
	push	{lr}
.LCFI68:
	sub	sp, sp, #20
.LCFI69:
	str	r0, [sp, #4]
	str	r1, [sp]
	.loc 1 1491 3
	ldr	r3, .L160
	ldrb	r3, [r3]	@ zero_extendqisi2
	cmp	r3, #0
	bne	.L156
	.loc 1 1491 3 is_stmt 0 discriminator 1
	bl	_DoInit
.L156:
	.loc 1 1492 42 is_stmt 1
	ldr	r3, .L160
	ldr	r3, [r3, #16]
	.loc 1 1492 21
	mov	r2, r3
	.loc 1 1492 6
	ldr	r3, [sp, #4]
	cmp	r3, r2
	bcs	.L157
.LBB10:
	.loc 1 1493 5
	.syntax unified
@ 1493 "C:\Users\Devan\Documents\SEGGER Embedded Studio for ARM Projects\Executable_1\SEGGER\SEGGER_RTT.c" 1
	mrs   r3, basepri  
	mov   r1, #32       
	msr   basepri, r1  
	
@ 0 "" 2
	.thumb
	.syntax unified
	str	r3, [sp, #8]
	.loc 1 1494 40
	ldr	r1, .L160
	ldr	r3, [sp, #4]
	adds	r2, r3, #1
	mov	r3, r2
	lsls	r3, r3, #1
	add	r3, r3, r2
	lsls	r3, r3, #3
	add	r3, r3, r1
	ldr	r2, [sp]
	str	r2, [r3]
	.loc 1 1495 5
	ldr	r3, [sp, #8]
	.syntax unified
@ 1495 "C:\Users\Devan\Documents\SEGGER Embedded Studio for ARM Projects\Executable_1\SEGGER\SEGGER_RTT.c" 1
	msr   basepri, r3  
	
@ 0 "" 2
	.thumb
	.syntax unified
.LBE10:
	.loc 1 1496 7
	movs	r3, #0
	str	r3, [sp, #12]
	b	.L158
.L157:
	.loc 1 1498 7
	mov	r3, #-1
	str	r3, [sp, #12]
.L158:
	.loc 1 1500 10
	ldr	r3, [sp, #12]
	.loc 1 1501 1
	mov	r0, r3
	add	sp, sp, #20
.LCFI70:
	@ sp needed
	ldr	pc, [sp], #4
.L161:
	.align	2
.L160:
	.word	_SEGGER_RTT
.LFE24:
	.size	SEGGER_RTT_SetNameUpBuffer, .-SEGGER_RTT_SetNameUpBuffer
	.section	.text.SEGGER_RTT_SetNameDownBuffer,"ax",%progbits
	.align	1
	.global	SEGGER_RTT_SetNameDownBuffer
	.syntax unified
	.thumb
	.thumb_func
	.fpu softvfp
	.type	SEGGER_RTT_SetNameDownBuffer, %function
SEGGER_RTT_SetNameDownBuffer:
.LFB25:
	.loc 1 1519 75
	@ args = 0, pretend = 0, frame = 16
	@ frame_needed = 0, uses_anonymous_args = 0
	push	{lr}
.LCFI71:
	sub	sp, sp, #20
.LCFI72:
	str	r0, [sp, #4]
	str	r1, [sp]
	.loc 1 1522 3
	ldr	r3, .L167
	ldrb	r3, [r3]	@ zero_extendqisi2
	cmp	r3, #0
	bne	.L163
	.loc 1 1522 3 is_stmt 0 discriminator 1
	bl	_DoInit
.L163:
	.loc 1 1523 42 is_stmt 1
	ldr	r3, .L167
	ldr	r3, [r3, #20]
	.loc 1 1523 21
	mov	r2, r3
	.loc 1 1523 6
	ldr	r3, [sp, #4]
	cmp	r3, r2
	bcs	.L164
.LBB11:
	.loc 1 1524 5
	.syntax unified
@ 1524 "C:\Users\Devan\Documents\SEGGER Embedded Studio for ARM Projects\Executable_1\SEGGER\SEGGER_RTT.c" 1
	mrs   r3, basepri  
	mov   r1, #32       
	msr   basepri, r1  
	
@ 0 "" 2
	.thumb
	.syntax unified
	str	r3, [sp, #8]
	.loc 1 1525 42
	ldr	r1, .L167
	ldr	r2, [sp, #4]
	mov	r3, r2
	lsls	r3, r3, #1
	add	r3, r3, r2
	lsls	r3, r3, #3
	add	r3, r3, r1
	adds	r3, r3, #72
	ldr	r2, [sp]
	str	r2, [r3]
	.loc 1 1526 5
	ldr	r3, [sp, #8]
	.syntax unified
@ 1526 "C:\Users\Devan\Documents\SEGGER Embedded Studio for ARM Projects\Executable_1\SEGGER\SEGGER_RTT.c" 1
	msr   basepri, r3  
	
@ 0 "" 2
	.thumb
	.syntax unified
.LBE11:
	.loc 1 1527 7
	movs	r3, #0
	str	r3, [sp, #12]
	b	.L165
.L164:
	.loc 1 1529 7
	mov	r3, #-1
	str	r3, [sp, #12]
.L165:
	.loc 1 1531 10
	ldr	r3, [sp, #12]
	.loc 1 1532 1
	mov	r0, r3
	add	sp, sp, #20
.LCFI73:
	@ sp needed
	ldr	pc, [sp], #4
.L168:
	.align	2
.L167:
	.word	_SEGGER_RTT
.LFE25:
	.size	SEGGER_RTT_SetNameDownBuffer, .-SEGGER_RTT_SetNameDownBuffer
	.section	.text.SEGGER_RTT_SetFlagsUpBuffer,"ax",%progbits
	.align	1
	.global	SEGGER_RTT_SetFlagsUpBuffer
	.syntax unified
	.thumb
	.thumb_func
	.fpu softvfp
	.type	SEGGER_RTT_SetFlagsUpBuffer, %function
SEGGER_RTT_SetFlagsUpBuffer:
.LFB26:
	.loc 1 1550 71
	@ args = 0, pretend = 0, frame = 16
	@ frame_needed = 0, uses_anonymous_args = 0
	push	{lr}
.LCFI74:
	sub	sp, sp, #20
.LCFI75:
	str	r0, [sp, #4]
	str	r1, [sp]
	.loc 1 1553 3
	ldr	r3, .L174
	ldrb	r3, [r3]	@ zero_extendqisi2
	cmp	r3, #0
	bne	.L170
	.loc 1 1553 3 is_stmt 0 discriminator 1
	bl	_DoInit
.L170:
	.loc 1 1554 42 is_stmt 1
	ldr	r3, .L174
	ldr	r3, [r3, #16]
	.loc 1 1554 21
	mov	r2, r3
	.loc 1 1554 6
	ldr	r3, [sp, #4]
	cmp	r3, r2
	bcs	.L171
.LBB12:
	.loc 1 1555 5
	.syntax unified
@ 1555 "C:\Users\Devan\Documents\SEGGER Embedded Studio for ARM Projects\Executable_1\SEGGER\SEGGER_RTT.c" 1
	mrs   r3, basepri  
	mov   r1, #32       
	msr   basepri, r1  
	
@ 0 "" 2
	.thumb
	.syntax unified
	str	r3, [sp, #8]
	.loc 1 1556 40
	ldr	r1, .L174
	ldr	r2, [sp, #4]
	mov	r3, r2
	lsls	r3, r3, #1
	add	r3, r3, r2
	lsls	r3, r3, #3
	add	r3, r3, r1
	adds	r3, r3, #44
	ldr	r2, [sp]
	str	r2, [r3]
	.loc 1 1557 5
	ldr	r3, [sp, #8]
	.syntax unified
@ 1557 "C:\Users\Devan\Documents\SEGGER Embedded Studio for ARM Projects\Executable_1\SEGGER\SEGGER_RTT.c" 1
	msr   basepri, r3  
	
@ 0 "" 2
	.thumb
	.syntax unified
.LBE12:
	.loc 1 1558 7
	movs	r3, #0
	str	r3, [sp, #12]
	b	.L172
.L171:
	.loc 1 1560 7
	mov	r3, #-1
	str	r3, [sp, #12]
.L172:
	.loc 1 1562 10
	ldr	r3, [sp, #12]
	.loc 1 1563 1
	mov	r0, r3
	add	sp, sp, #20
.LCFI76:
	@ sp needed
	ldr	pc, [sp], #4
.L175:
	.align	2
.L174:
	.word	_SEGGER_RTT
.LFE26:
	.size	SEGGER_RTT_SetFlagsUpBuffer, .-SEGGER_RTT_SetFlagsUpBuffer
	.section	.text.SEGGER_RTT_SetFlagsDownBuffer,"ax",%progbits
	.align	1
	.global	SEGGER_RTT_SetFlagsDownBuffer
	.syntax unified
	.thumb
	.thumb_func
	.fpu softvfp
	.type	SEGGER_RTT_SetFlagsDownBuffer, %function
SEGGER_RTT_SetFlagsDownBuffer:
.LFB27:
	.loc 1 1581 73
	@ args = 0, pretend = 0, frame = 16
	@ frame_needed = 0, uses_anonymous_args = 0
	push	{lr}
.LCFI77:
	sub	sp, sp, #20
.LCFI78:
	str	r0, [sp, #4]
	str	r1, [sp]
	.loc 1 1584 3
	ldr	r3, .L181
	ldrb	r3, [r3]	@ zero_extendqisi2
	cmp	r3, #0
	bne	.L177
	.loc 1 1584 3 is_stmt 0 discriminator 1
	bl	_DoInit
.L177:
	.loc 1 1585 42 is_stmt 1
	ldr	r3, .L181
	ldr	r3, [r3, #20]
	.loc 1 1585 21
	mov	r2, r3
	.loc 1 1585 6
	ldr	r3, [sp, #4]
	cmp	r3, r2
	bcs	.L178
.LBB13:
	.loc 1 1586 5
	.syntax unified
@ 1586 "C:\Users\Devan\Documents\SEGGER Embedded Studio for ARM Projects\Executable_1\SEGGER\SEGGER_RTT.c" 1
	mrs   r3, basepri  
	mov   r1, #32       
	msr   basepri, r1  
	
@ 0 "" 2
	.thumb
	.syntax unified
	str	r3, [sp, #8]
	.loc 1 1587 42
	ldr	r1, .L181
	ldr	r2, [sp, #4]
	mov	r3, r2
	lsls	r3, r3, #1
	add	r3, r3, r2
	lsls	r3, r3, #3
	add	r3, r3, r1
	adds	r3, r3, #92
	ldr	r2, [sp]
	str	r2, [r3]
	.loc 1 1588 5
	ldr	r3, [sp, #8]
	.syntax unified
@ 1588 "C:\Users\Devan\Documents\SEGGER Embedded Studio for ARM Projects\Executable_1\SEGGER\SEGGER_RTT.c" 1
	msr   basepri, r3  
	
@ 0 "" 2
	.thumb
	.syntax unified
.LBE13:
	.loc 1 1589 7
	movs	r3, #0
	str	r3, [sp, #12]
	b	.L179
.L178:
	.loc 1 1591 7
	mov	r3, #-1
	str	r3, [sp, #12]
.L179:
	.loc 1 1593 10
	ldr	r3, [sp, #12]
	.loc 1 1594 1
	mov	r0, r3
	add	sp, sp, #20
.LCFI79:
	@ sp needed
	ldr	pc, [sp], #4
.L182:
	.align	2
.L181:
	.word	_SEGGER_RTT
.LFE27:
	.size	SEGGER_RTT_SetFlagsDownBuffer, .-SEGGER_RTT_SetFlagsDownBuffer
	.section	.text.SEGGER_RTT_Init,"ax",%progbits
	.align	1
	.global	SEGGER_RTT_Init
	.syntax unified
	.thumb
	.thumb_func
	.fpu softvfp
	.type	SEGGER_RTT_Init, %function
SEGGER_RTT_Init:
.LFB28:
	.loc 1 1605 29
	@ args = 0, pretend = 0, frame = 0
	@ frame_needed = 0, uses_anonymous_args = 0
	push	{r3, lr}
.LCFI80:
	.loc 1 1606 3
	bl	_DoInit
	.loc 1 1607 1
	nop
	pop	{r3, pc}
.LFE28:
	.size	SEGGER_RTT_Init, .-SEGGER_RTT_Init
	.section	.text.SEGGER_RTT_SetTerminal,"ax",%progbits
	.align	1
	.global	SEGGER_RTT_SetTerminal
	.syntax unified
	.thumb
	.thumb_func
	.fpu softvfp
	.type	SEGGER_RTT_SetTerminal, %function
SEGGER_RTT_SetTerminal:
.LFB29:
	.loc 1 1623 46
	@ args = 0, pretend = 0, frame = 32
	@ frame_needed = 0, uses_anonymous_args = 0
	push	{lr}
.LCFI81:
	sub	sp, sp, #36
.LCFI82:
	mov	r3, r0
	strb	r3, [sp, #7]
	.loc 1 1629 3
	ldr	r3, .L192
	ldrb	r3, [r3]	@ zero_extendqisi2
	cmp	r3, #0
	bne	.L185
	.loc 1 1629 3 is_stmt 0 discriminator 1
	bl	_DoInit
.L185:
	.loc 1 1631 5 is_stmt 1
	movs	r3, #0
	str	r3, [sp, #28]
	.loc 1 1632 9
	movs	r3, #255
	strb	r3, [sp, #12]
	.loc 1 1633 6
	ldrb	r3, [sp, #7]	@ zero_extendqisi2
	cmp	r3, #15
	bhi	.L186
	.loc 1 1634 26
	ldrb	r3, [sp, #7]	@ zero_extendqisi2
	.loc 1 1634 25
	ldr	r2, .L192+4
	ldrb	r3, [r2, r3]	@ zero_extendqisi2
	.loc 1 1634 11
	strb	r3, [sp, #13]
	.loc 1 1635 11
	ldr	r3, .L192+8
	str	r3, [sp, #24]
.LBB14:
	.loc 1 1636 5
	.syntax unified
@ 1636 "C:\Users\Devan\Documents\SEGGER Embedded Studio for ARM Projects\Executable_1\SEGGER\SEGGER_RTT.c" 1
	mrs   r3, basepri  
	mov   r1, #32       
	msr   basepri, r1  
	
@ 0 "" 2
	.thumb
	.syntax unified
	str	r3, [sp, #20]
	.loc 1 1637 15
	ldr	r3, [sp, #24]
	ldr	r3, [r3, #20]
	.loc 1 1637 23
	and	r3, r3, #3
	.loc 1 1637 8
	cmp	r3, #2
	bne	.L187
	.loc 1 1638 23
	ldr	r2, .L192+12
	ldrb	r3, [sp, #7]
	strb	r3, [r2]
	.loc 1 1639 7
	add	r3, sp, #12
	movs	r2, #2
	mov	r1, r3
	ldr	r0, [sp, #24]
	bl	_WriteBlocking
	b	.L188
.L187:
	.loc 1 1641 15
	ldr	r0, [sp, #24]
	bl	_GetAvailWriteSpace
	str	r0, [sp, #16]
	.loc 1 1642 10
	ldr	r3, [sp, #16]
	cmp	r3, #1
	bls	.L189
	.loc 1 1643 25
	ldr	r2, .L192+12
	ldrb	r3, [sp, #7]
	strb	r3, [r2]
	.loc 1 1644 9
	add	r3, sp, #12
	movs	r2, #2
	mov	r1, r3
	ldr	r0, [sp, #24]
	bl	_WriteNoCheck
	b	.L188
.L189:
	.loc 1 1646 11
	mov	r3, #-1
	str	r3, [sp, #28]
.L188:
	.loc 1 1649 5
	ldr	r3, [sp, #20]
	.syntax unified
@ 1649 "C:\Users\Devan\Documents\SEGGER Embedded Studio for ARM Projects\Executable_1\SEGGER\SEGGER_RTT.c" 1
	msr   basepri, r3  
	
@ 0 "" 2
	.thumb
	.syntax unified
.LBE14:
	b	.L190
.L186:
	.loc 1 1651 7
	mov	r3, #-1
	str	r3, [sp, #28]
.L190:
	.loc 1 1653 10
	ldr	r3, [sp, #28]
	.loc 1 1654 1
	mov	r0, r3
	add	sp, sp, #36
.LCFI83:
	@ sp needed
	ldr	pc, [sp], #4
.L193:
	.align	2
.L192:
	.word	_SEGGER_RTT
	.word	_aTerminalId
	.word	_SEGGER_RTT+24
	.word	_ActiveTerminal
.LFE29:
	.size	SEGGER_RTT_SetTerminal, .-SEGGER_RTT_SetTerminal
	.section	.text.SEGGER_RTT_TerminalOut,"ax",%progbits
	.align	1
	.global	SEGGER_RTT_TerminalOut
	.syntax unified
	.thumb
	.thumb_func
	.fpu softvfp
	.type	SEGGER_RTT_TerminalOut, %function
SEGGER_RTT_TerminalOut:
.LFB30:
	.loc 1 1673 61
	@ args = 0, pretend = 0, frame = 32
	@ frame_needed = 0, uses_anonymous_args = 0
	push	{lr}
.LCFI84:
	sub	sp, sp, #36
.LCFI85:
	mov	r3, r0
	str	r1, [sp]
	strb	r3, [sp, #7]
	.loc 1 1679 3
	ldr	r3, .L208
	ldrb	r3, [r3]	@ zero_extendqisi2
	cmp	r3, #0
	bne	.L195
	.loc 1 1679 3 is_stmt 0 discriminator 1
	bl	_DoInit
.L195:
	.loc 1 1683 6 is_stmt 1
	ldrb	r3, [sp, #7]	@ zero_extendqisi2
	cmp	r3, #15
	bhi	.L196
	.loc 1 1687 11
	ldr	r3, .L208+4
	str	r3, [sp, #24]
	.loc 1 1692 15
	ldr	r0, [sp]
	bl	strlen
	str	r0, [sp, #20]
.LBB15:
	.loc 1 1696 5
	.syntax unified
@ 1696 "C:\Users\Devan\Documents\SEGGER Embedded Studio for ARM Projects\Executable_1\SEGGER\SEGGER_RTT.c" 1
	mrs   r3, basepri  
	mov   r1, #32       
	msr   basepri, r1  
	
@ 0 "" 2
	.thumb
	.syntax unified
	str	r3, [sp, #16]
	.loc 1 1697 13
	ldr	r0, [sp, #24]
	bl	_GetAvailWriteSpace
	str	r0, [sp, #12]
	.loc 1 1698 18
	ldr	r3, [sp, #24]
	ldr	r3, [r3, #20]
	.loc 1 1698 26
	and	r3, r3, #3
	.loc 1 1698 5
	cmp	r3, #2
	beq	.L197
	cmp	r3, #2
	bhi	.L198
	cmp	r3, #0
	beq	.L199
	cmp	r3, #1
	beq	.L200
	b	.L198
.L199:
	.loc 1 1704 28
	ldr	r3, [sp, #20]
	adds	r3, r3, #4
	.loc 1 1704 10
	ldr	r2, [sp, #12]
	cmp	r2, r3
	bcs	.L201
	.loc 1 1705 16
	movs	r3, #0
	str	r3, [sp, #28]
	.loc 1 1711 7
	b	.L203
.L201:
	.loc 1 1707 9
	ldrb	r3, [sp, #7]	@ zero_extendqisi2
	mov	r1, r3
	ldr	r0, [sp, #24]
	bl	_PostTerminalSwitch
	.loc 1 1708 23
	ldr	r2, [sp, #20]
	ldr	r1, [sp]
	ldr	r0, [sp, #24]
	bl	_WriteBlocking
	mov	r3, r0
	.loc 1 1708 16
	str	r3, [sp, #28]
	.loc 1 1709 9
	ldr	r3, .L208+8
	ldrb	r3, [r3]	@ zero_extendqisi2
	mov	r1, r3
	ldr	r0, [sp, #24]
	bl	_PostTerminalSwitch
	.loc 1 1711 7
	b	.L203
.L200:
	.loc 1 1718 10
	ldr	r3, [sp, #12]
	cmp	r3, #3
	bhi	.L204
	.loc 1 1719 16
	mov	r3, #-1
	str	r3, [sp, #28]
	.loc 1 1725 7
	b	.L203
.L204:
	.loc 1 1721 9
	ldrb	r3, [sp, #7]	@ zero_extendqisi2
	mov	r1, r3
	ldr	r0, [sp, #24]
	bl	_PostTerminalSwitch
	.loc 1 1722 66
	ldr	r3, [sp, #12]
	subs	r2, r3, #4
	.loc 1 1722 23
	ldr	r3, [sp, #20]
	cmp	r3, r2
	it	cs
	movcs	r3, r2
	mov	r2, r3
	ldr	r1, [sp]
	ldr	r0, [sp, #24]
	bl	_WriteBlocking
	mov	r3, r0
	.loc 1 1722 16
	str	r3, [sp, #28]
	.loc 1 1723 9
	ldr	r3, .L208+8
	ldrb	r3, [r3]	@ zero_extendqisi2
	mov	r1, r3
	ldr	r0, [sp, #24]
	bl	_PostTerminalSwitch
	.loc 1 1725 7
	b	.L203
.L197:
	.loc 1 1730 7
	ldrb	r3, [sp, #7]	@ zero_extendqisi2
	mov	r1, r3
	ldr	r0, [sp, #24]
	bl	_PostTerminalSwitch
	.loc 1 1731 21
	ldr	r2, [sp, #20]
	ldr	r1, [sp]
	ldr	r0, [sp, #24]
	bl	_WriteBlocking
	mov	r3, r0
	.loc 1 1731 14
	str	r3, [sp, #28]
	.loc 1 1732 7
	ldr	r3, .L208+8
	ldrb	r3, [r3]	@ zero_extendqisi2
	mov	r1, r3
	ldr	r0, [sp, #24]
	bl	_PostTerminalSwitch
	.loc 1 1733 7
	b	.L203
.L198:
	.loc 1 1735 14
	mov	r3, #-1
	str	r3, [sp, #28]
	.loc 1 1736 7
	nop
.L203:
	.loc 1 1741 5
	ldr	r3, [sp, #16]
	.syntax unified
@ 1741 "C:\Users\Devan\Documents\SEGGER Embedded Studio for ARM Projects\Executable_1\SEGGER\SEGGER_RTT.c" 1
	msr   basepri, r3  
	
@ 0 "" 2
	.thumb
	.syntax unified
.LBE15:
	b	.L206
.L196:
	.loc 1 1743 12
	mov	r3, #-1
	str	r3, [sp, #28]
.L206:
	.loc 1 1745 10
	ldr	r3, [sp, #28]
	.loc 1 1746 1
	mov	r0, r3
	add	sp, sp, #36
.LCFI86:
	@ sp needed
	ldr	pc, [sp], #4
.L209:
	.align	2
.L208:
	.word	_SEGGER_RTT
	.word	_SEGGER_RTT+24
	.word	_ActiveTerminal
.LFE30:
	.size	SEGGER_RTT_TerminalOut, .-SEGGER_RTT_TerminalOut
	.section	.debug_frame,"",%progbits
.Lframe0:
	.4byte	.LECIE0-.LSCIE0
.LSCIE0:
	.4byte	0xffffffff
	.byte	0x3
	.ascii	"\000"
	.uleb128 0x1
	.sleb128 -4
	.uleb128 0xe
	.byte	0xc
	.uleb128 0xd
	.uleb128 0
	.align	2
.LECIE0:
.LSFDE0:
	.4byte	.LEFDE0-.LASFDE0
.LASFDE0:
	.4byte	.Lframe0
	.4byte	.LFB0
	.4byte	.LFE0-.LFB0
	.byte	0x4
	.4byte	.LCFI0-.LFB0
	.byte	0xe
	.uleb128 0x4
	.byte	0x8e
	.uleb128 0x1
	.byte	0x4
	.4byte	.LCFI1-.LCFI0
	.byte	0xe
	.uleb128 0x10
	.byte	0x4
	.4byte	.LCFI2-.LCFI1
	.byte	0xe
	.uleb128 0x4
	.align	2
.LEFDE0:
.LSFDE2:
	.4byte	.LEFDE2-.LASFDE2
.LASFDE2:
	.4byte	.Lframe0
	.4byte	.LFB1
	.4byte	.LFE1-.LFB1
	.byte	0x4
	.4byte	.LCFI3-.LFB1
	.byte	0xe
	.uleb128 0x4
	.byte	0x8e
	.uleb128 0x1
	.byte	0x4
	.4byte	.LCFI4-.LCFI3
	.byte	0xe
	.uleb128 0x28
	.byte	0x4
	.4byte	.LCFI5-.LCFI4
	.byte	0xe
	.uleb128 0x4
	.align	2
.LEFDE2:
.LSFDE4:
	.4byte	.LEFDE4-.LASFDE4
.LASFDE4:
	.4byte	.Lframe0
	.4byte	.LFB2
	.4byte	.LFE2-.LFB2
	.byte	0x4
	.4byte	.LCFI6-.LFB2
	.byte	0xe
	.uleb128 0x4
	.byte	0x8e
	.uleb128 0x1
	.byte	0x4
	.4byte	.LCFI7-.LCFI6
	.byte	0xe
	.uleb128 0x28
	.byte	0x4
	.4byte	.LCFI8-.LCFI7
	.byte	0xe
	.uleb128 0x4
	.align	2
.LEFDE4:
.LSFDE6:
	.4byte	.LEFDE6-.LASFDE6
.LASFDE6:
	.4byte	.Lframe0
	.4byte	.LFB3
	.4byte	.LFE3-.LFB3
	.byte	0x4
	.4byte	.LCFI9-.LFB3
	.byte	0xe
	.uleb128 0x4
	.byte	0x8e
	.uleb128 0x1
	.byte	0x4
	.4byte	.LCFI10-.LCFI9
	.byte	0xe
	.uleb128 0x18
	.byte	0x4
	.4byte	.LCFI11-.LCFI10
	.byte	0xe
	.uleb128 0x4
	.align	2
.LEFDE6:
.LSFDE8:
	.4byte	.LEFDE8-.LASFDE8
.LASFDE8:
	.4byte	.Lframe0
	.4byte	.LFB4
	.4byte	.LFE4-.LFB4
	.byte	0x4
	.4byte	.LCFI12-.LFB4
	.byte	0xe
	.uleb128 0x18
	.byte	0x4
	.4byte	.LCFI13-.LCFI12
	.byte	0xe
	.uleb128 0
	.align	2
.LEFDE8:
.LSFDE10:
	.4byte	.LEFDE10-.LASFDE10
.LASFDE10:
	.4byte	.Lframe0
	.4byte	.LFB5
	.4byte	.LFE5-.LFB5
	.byte	0x4
	.4byte	.LCFI14-.LFB5
	.byte	0xe
	.uleb128 0x4
	.byte	0x8e
	.uleb128 0x1
	.byte	0x4
	.4byte	.LCFI15-.LCFI14
	.byte	0xe
	.uleb128 0x30
	.byte	0x4
	.4byte	.LCFI16-.LCFI15
	.byte	0xe
	.uleb128 0x4
	.align	2
.LEFDE10:
.LSFDE12:
	.4byte	.LEFDE12-.LASFDE12
.LASFDE12:
	.4byte	.Lframe0
	.4byte	.LFB6
	.4byte	.LFE6-.LFB6
	.byte	0x4
	.4byte	.LCFI17-.LFB6
	.byte	0xe
	.uleb128 0x4
	.byte	0x8e
	.uleb128 0x1
	.byte	0x4
	.4byte	.LCFI18-.LCFI17
	.byte	0xe
	.uleb128 0x20
	.byte	0x4
	.4byte	.LCFI19-.LCFI18
	.byte	0xe
	.uleb128 0x4
	.align	2
.LEFDE12:
.LSFDE14:
	.4byte	.LEFDE14-.LASFDE14
.LASFDE14:
	.4byte	.Lframe0
	.4byte	.LFB7
	.4byte	.LFE7-.LFB7
	.byte	0x4
	.4byte	.LCFI20-.LFB7
	.byte	0xe
	.uleb128 0x4
	.byte	0x8e
	.uleb128 0x1
	.byte	0x4
	.4byte	.LCFI21-.LCFI20
	.byte	0xe
	.uleb128 0x28
	.byte	0x4
	.4byte	.LCFI22-.LCFI21
	.byte	0xe
	.uleb128 0x4
	.align	2
.LEFDE14:
.LSFDE16:
	.4byte	.LEFDE16-.LASFDE16
.LASFDE16:
	.4byte	.Lframe0
	.4byte	.LFB8
	.4byte	.LFE8-.LFB8
	.byte	0x4
	.4byte	.LCFI23-.LFB8
	.byte	0xe
	.uleb128 0x4
	.byte	0x8e
	.uleb128 0x1
	.byte	0x4
	.4byte	.LCFI24-.LCFI23
	.byte	0xe
	.uleb128 0x30
	.byte	0x4
	.4byte	.LCFI25-.LCFI24
	.byte	0xe
	.uleb128 0x4
	.align	2
.LEFDE16:
.LSFDE18:
	.4byte	.LEFDE18-.LASFDE18
.LASFDE18:
	.4byte	.Lframe0
	.4byte	.LFB9
	.4byte	.LFE9-.LFB9
	.byte	0x4
	.4byte	.LCFI26-.LFB9
	.byte	0xe
	.uleb128 0x4
	.byte	0x8e
	.uleb128 0x1
	.byte	0x4
	.4byte	.LCFI27-.LCFI26
	.byte	0xe
	.uleb128 0x28
	.byte	0x4
	.4byte	.LCFI28-.LCFI27
	.byte	0xe
	.uleb128 0x4
	.align	2
.LEFDE18:
.LSFDE20:
	.4byte	.LEFDE20-.LASFDE20
.LASFDE20:
	.4byte	.Lframe0
	.4byte	.LFB10
	.4byte	.LFE10-.LFB10
	.byte	0x4
	.4byte	.LCFI29-.LFB10
	.byte	0xe
	.uleb128 0x4
	.byte	0x8e
	.uleb128 0x1
	.byte	0x4
	.4byte	.LCFI30-.LCFI29
	.byte	0xe
	.uleb128 0x20
	.byte	0x4
	.4byte	.LCFI31-.LCFI30
	.byte	0xe
	.uleb128 0x4
	.align	2
.LEFDE20:
.LSFDE22:
	.4byte	.LEFDE22-.LASFDE22
.LASFDE22:
	.4byte	.Lframe0
	.4byte	.LFB11
	.4byte	.LFE11-.LFB11
	.byte	0x4
	.4byte	.LCFI32-.LFB11
	.byte	0xe
	.uleb128 0x4
	.byte	0x8e
	.uleb128 0x1
	.byte	0x4
	.4byte	.LCFI33-.LCFI32
	.byte	0xe
	.uleb128 0x18
	.byte	0x4
	.4byte	.LCFI34-.LCFI33
	.byte	0xe
	.uleb128 0x4
	.align	2
.LEFDE22:
.LSFDE24:
	.4byte	.LEFDE24-.LASFDE24
.LASFDE24:
	.4byte	.Lframe0
	.4byte	.LFB12
	.4byte	.LFE12-.LFB12
	.byte	0x4
	.4byte	.LCFI35-.LFB12
	.byte	0xe
	.uleb128 0x18
	.byte	0x4
	.4byte	.LCFI36-.LCFI35
	.byte	0xe
	.uleb128 0
	.align	2
.LEFDE24:
.LSFDE26:
	.4byte	.LEFDE26-.LASFDE26
.LASFDE26:
	.4byte	.Lframe0
	.4byte	.LFB13
	.4byte	.LFE13-.LFB13
	.byte	0x4
	.4byte	.LCFI37-.LFB13
	.byte	0xe
	.uleb128 0x4
	.byte	0x8e
	.uleb128 0x1
	.byte	0x4
	.4byte	.LCFI38-.LCFI37
	.byte	0xe
	.uleb128 0x20
	.byte	0x4
	.4byte	.LCFI39-.LCFI38
	.byte	0xe
	.uleb128 0x4
	.align	2
.LEFDE26:
.LSFDE28:
	.4byte	.LEFDE28-.LASFDE28
.LASFDE28:
	.4byte	.Lframe0
	.4byte	.LFB14
	.4byte	.LFE14-.LFB14
	.byte	0x4
	.4byte	.LCFI40-.LFB14
	.byte	0xe
	.uleb128 0x4
	.byte	0x8e
	.uleb128 0x1
	.byte	0x4
	.4byte	.LCFI41-.LCFI40
	.byte	0xe
	.uleb128 0x20
	.byte	0x4
	.4byte	.LCFI42-.LCFI41
	.byte	0xe
	.uleb128 0x4
	.align	2
.LEFDE28:
.LSFDE30:
	.4byte	.LEFDE30-.LASFDE30
.LASFDE30:
	.4byte	.Lframe0
	.4byte	.LFB15
	.4byte	.LFE15-.LFB15
	.byte	0x4
	.4byte	.LCFI43-.LFB15
	.byte	0xe
	.uleb128 0x4
	.byte	0x8e
	.uleb128 0x1
	.byte	0x4
	.4byte	.LCFI44-.LCFI43
	.byte	0xe
	.uleb128 0x10
	.byte	0x4
	.4byte	.LCFI45-.LCFI44
	.byte	0xe
	.uleb128 0x4
	.align	2
.LEFDE30:
.LSFDE32:
	.4byte	.LEFDE32-.LASFDE32
.LASFDE32:
	.4byte	.Lframe0
	.4byte	.LFB16
	.4byte	.LFE16-.LFB16
	.byte	0x4
	.4byte	.LCFI46-.LFB16
	.byte	0xe
	.uleb128 0x4
	.byte	0x8e
	.uleb128 0x1
	.byte	0x4
	.4byte	.LCFI47-.LCFI46
	.byte	0xe
	.uleb128 0x10
	.byte	0x4
	.4byte	.LCFI48-.LCFI47
	.byte	0xe
	.uleb128 0x4
	.align	2
.LEFDE32:
.LSFDE34:
	.4byte	.LEFDE34-.LASFDE34
.LASFDE34:
	.4byte	.Lframe0
	.4byte	.LFB17
	.4byte	.LFE17-.LFB17
	.byte	0x4
	.4byte	.LCFI49-.LFB17
	.byte	0xe
	.uleb128 0x4
	.byte	0x8e
	.uleb128 0x1
	.byte	0x4
	.4byte	.LCFI50-.LCFI49
	.byte	0xe
	.uleb128 0x10
	.byte	0x4
	.4byte	.LCFI51-.LCFI50
	.byte	0xe
	.uleb128 0x4
	.align	2
.LEFDE34:
.LSFDE36:
	.4byte	.LEFDE36-.LASFDE36
.LASFDE36:
	.4byte	.Lframe0
	.4byte	.LFB18
	.4byte	.LFE18-.LFB18
	.byte	0x4
	.4byte	.LCFI52-.LFB18
	.byte	0xe
	.uleb128 0x10
	.byte	0x4
	.4byte	.LCFI53-.LCFI52
	.byte	0xe
	.uleb128 0
	.align	2
.LEFDE36:
.LSFDE38:
	.4byte	.LEFDE38-.LASFDE38
.LASFDE38:
	.4byte	.Lframe0
	.4byte	.LFB19
	.4byte	.LFE19-.LFB19
	.byte	0x4
	.4byte	.LCFI54-.LFB19
	.byte	0xe
	.uleb128 0x10
	.byte	0x4
	.4byte	.LCFI55-.LCFI54
	.byte	0xe
	.uleb128 0
	.align	2
.LEFDE38:
.LSFDE40:
	.4byte	.LEFDE40-.LASFDE40
.LASFDE40:
	.4byte	.Lframe0
	.4byte	.LFB20
	.4byte	.LFE20-.LFB20
	.byte	0x4
	.4byte	.LCFI56-.LFB20
	.byte	0xe
	.uleb128 0x4
	.byte	0x8e
	.uleb128 0x1
	.byte	0x4
	.4byte	.LCFI57-.LCFI56
	.byte	0xe
	.uleb128 0x20
	.byte	0x4
	.4byte	.LCFI58-.LCFI57
	.byte	0xe
	.uleb128 0x4
	.align	2
.LEFDE40:
.LSFDE42:
	.4byte	.LEFDE42-.LASFDE42
.LASFDE42:
	.4byte	.Lframe0
	.4byte	.LFB21
	.4byte	.LFE21-.LFB21
	.byte	0x4
	.4byte	.LCFI59-.LFB21
	.byte	0xe
	.uleb128 0x4
	.byte	0x8e
	.uleb128 0x1
	.byte	0x4
	.4byte	.LCFI60-.LCFI59
	.byte	0xe
	.uleb128 0x20
	.byte	0x4
	.4byte	.LCFI61-.LCFI60
	.byte	0xe
	.uleb128 0x4
	.align	2
.LEFDE42:
.LSFDE44:
	.4byte	.LEFDE44-.LASFDE44
.LASFDE44:
	.4byte	.Lframe0
	.4byte	.LFB22
	.4byte	.LFE22-.LFB22
	.byte	0x4
	.4byte	.LCFI62-.LFB22
	.byte	0xe
	.uleb128 0x4
	.byte	0x8e
	.uleb128 0x1
	.byte	0x4
	.4byte	.LCFI63-.LCFI62
	.byte	0xe
	.uleb128 0x20
	.byte	0x4
	.4byte	.LCFI64-.LCFI63
	.byte	0xe
	.uleb128 0x4
	.align	2
.LEFDE44:
.LSFDE46:
	.4byte	.LEFDE46-.LASFDE46
.LASFDE46:
	.4byte	.Lframe0
	.4byte	.LFB23
	.4byte	.LFE23-.LFB23
	.byte	0x4
	.4byte	.LCFI65-.LFB23
	.byte	0xe
	.uleb128 0x4
	.byte	0x8e
	.uleb128 0x1
	.byte	0x4
	.4byte	.LCFI66-.LCFI65
	.byte	0xe
	.uleb128 0x20
	.byte	0x4
	.4byte	.LCFI67-.LCFI66
	.byte	0xe
	.uleb128 0x4
	.align	2
.LEFDE46:
.LSFDE48:
	.4byte	.LEFDE48-.LASFDE48
.LASFDE48:
	.4byte	.Lframe0
	.4byte	.LFB24
	.4byte	.LFE24-.LFB24
	.byte	0x4
	.4byte	.LCFI68-.LFB24
	.byte	0xe
	.uleb128 0x4
	.byte	0x8e
	.uleb128 0x1
	.byte	0x4
	.4byte	.LCFI69-.LCFI68
	.byte	0xe
	.uleb128 0x18
	.byte	0x4
	.4byte	.LCFI70-.LCFI69
	.byte	0xe
	.uleb128 0x4
	.align	2
.LEFDE48:
.LSFDE50:
	.4byte	.LEFDE50-.LASFDE50
.LASFDE50:
	.4byte	.Lframe0
	.4byte	.LFB25
	.4byte	.LFE25-.LFB25
	.byte	0x4
	.4byte	.LCFI71-.LFB25
	.byte	0xe
	.uleb128 0x4
	.byte	0x8e
	.uleb128 0x1
	.byte	0x4
	.4byte	.LCFI72-.LCFI71
	.byte	0xe
	.uleb128 0x18
	.byte	0x4
	.4byte	.LCFI73-.LCFI72
	.byte	0xe
	.uleb128 0x4
	.align	2
.LEFDE50:
.LSFDE52:
	.4byte	.LEFDE52-.LASFDE52
.LASFDE52:
	.4byte	.Lframe0
	.4byte	.LFB26
	.4byte	.LFE26-.LFB26
	.byte	0x4
	.4byte	.LCFI74-.LFB26
	.byte	0xe
	.uleb128 0x4
	.byte	0x8e
	.uleb128 0x1
	.byte	0x4
	.4byte	.LCFI75-.LCFI74
	.byte	0xe
	.uleb128 0x18
	.byte	0x4
	.4byte	.LCFI76-.LCFI75
	.byte	0xe
	.uleb128 0x4
	.align	2
.LEFDE52:
.LSFDE54:
	.4byte	.LEFDE54-.LASFDE54
.LASFDE54:
	.4byte	.Lframe0
	.4byte	.LFB27
	.4byte	.LFE27-.LFB27
	.byte	0x4
	.4byte	.LCFI77-.LFB27
	.byte	0xe
	.uleb128 0x4
	.byte	0x8e
	.uleb128 0x1
	.byte	0x4
	.4byte	.LCFI78-.LCFI77
	.byte	0xe
	.uleb128 0x18
	.byte	0x4
	.4byte	.LCFI79-.LCFI78
	.byte	0xe
	.uleb128 0x4
	.align	2
.LEFDE54:
.LSFDE56:
	.4byte	.LEFDE56-.LASFDE56
.LASFDE56:
	.4byte	.Lframe0
	.4byte	.LFB28
	.4byte	.LFE28-.LFB28
	.byte	0x4
	.4byte	.LCFI80-.LFB28
	.byte	0xe
	.uleb128 0x8
	.byte	0x83
	.uleb128 0x2
	.byte	0x8e
	.uleb128 0x1
	.align	2
.LEFDE56:
.LSFDE58:
	.4byte	.LEFDE58-.LASFDE58
.LASFDE58:
	.4byte	.Lframe0
	.4byte	.LFB29
	.4byte	.LFE29-.LFB29
	.byte	0x4
	.4byte	.LCFI81-.LFB29
	.byte	0xe
	.uleb128 0x4
	.byte	0x8e
	.uleb128 0x1
	.byte	0x4
	.4byte	.LCFI82-.LCFI81
	.byte	0xe
	.uleb128 0x28
	.byte	0x4
	.4byte	.LCFI83-.LCFI82
	.byte	0xe
	.uleb128 0x4
	.align	2
.LEFDE58:
.LSFDE60:
	.4byte	.LEFDE60-.LASFDE60
.LASFDE60:
	.4byte	.Lframe0
	.4byte	.LFB30
	.4byte	.LFE30-.LFB30
	.byte	0x4
	.4byte	.LCFI84-.LFB30
	.byte	0xe
	.uleb128 0x4
	.byte	0x8e
	.uleb128 0x1
	.byte	0x4
	.4byte	.LCFI85-.LCFI84
	.byte	0xe
	.uleb128 0x28
	.byte	0x4
	.4byte	.LCFI86-.LCFI85
	.byte	0xe
	.uleb128 0x4
	.align	2
.LEFDE60:
	.text
.Letext0:
	.file 2 "C:/Program Files/SEGGER/SEGGER Embedded Studio for ARM 4.52c/include/__crossworks.h"
	.file 3 "C:\\Users\\Devan\\Documents\\SEGGER Embedded Studio for ARM Projects\\Executable_1\\SEGGER\\SEGGER_RTT.h"